Archive member included because of file (symbol)

c:/program files/raisonance/ride/arm-gcc/bin/../lib/gcc/arm-none-eabi/4.5.2/../../../../arm-none-eabi/lib/thumb2\libc.a(lib_a-memcpy.o)
                              D:\svn\stm32\stm32_high\sw\prj\RIDE\all_demo\usart.o (memcpy)
c:/program files/raisonance/ride/arm-gcc/bin/../lib/gcc/arm-none-eabi/4.5.2/../../../../arm-none-eabi/lib/thumb2\libc.a(lib_a-memset.o)
                              D:\svn\stm32\stm32_high\sw\prj\RIDE\all_demo\usart.o (memset)
c:/program files/raisonance/ride/arm-gcc/bin/../lib/gcc/arm-none-eabi/4.5.2/../../../../arm-none-eabi/lib/thumb2\libc.a(lib_a-strlen.o)
                              D:\svn\stm32\stm32_high\sw\prj\RIDE\all_demo\usart.o (strlen)
c:/program files/raisonance/ride/arm-gcc/bin/../lib/gcc/arm-none-eabi/4.5.2/../../../../arm-none-eabi/lib/thumb2\libc.a(lib_a-vsprintf.o)
                              D:\svn\stm32\stm32_high\sw\prj\RIDE\all_demo\usart.o (vsprintf)
c:/program files/raisonance/ride/arm-gcc/bin/../lib/gcc/arm-none-eabi/4.5.2/../../../../arm-none-eabi/lib/thumb2\libc.a(lib_a-impure.o)
                              c:/program files/raisonance/ride/arm-gcc/bin/../lib/gcc/arm-none-eabi/4.5.2/../../../../arm-none-eabi/lib/thumb2\libc.a(lib_a-vsprintf.o) (_impure_ptr)
c:/program files/raisonance/ride/arm-gcc/bin/../lib/gcc/arm-none-eabi/4.5.2/../../../../arm-none-eabi/lib/thumb2\libc.a(lib_a-svfprintf.o)
                              c:/program files/raisonance/ride/arm-gcc/bin/../lib/gcc/arm-none-eabi/4.5.2/../../../../arm-none-eabi/lib/thumb2\libc.a(lib_a-vsprintf.o) (_svfprintf_r)
c:/program files/raisonance/ride/arm-gcc/bin/../lib/gcc/arm-none-eabi/4.5.2/../../../../arm-none-eabi/lib/thumb2\libc.a(lib_a-dtoa.o)
                              c:/program files/raisonance/ride/arm-gcc/bin/../lib/gcc/arm-none-eabi/4.5.2/../../../../arm-none-eabi/lib/thumb2\libc.a(lib_a-svfprintf.o) (_dtoa_r)
c:/program files/raisonance/ride/arm-gcc/bin/../lib/gcc/arm-none-eabi/4.5.2/../../../../arm-none-eabi/lib/thumb2\libc.a(lib_a-locale.o)
                              c:/program files/raisonance/ride/arm-gcc/bin/../lib/gcc/arm-none-eabi/4.5.2/../../../../arm-none-eabi/lib/thumb2\libc.a(lib_a-svfprintf.o) (_localeconv_r)
c:/program files/raisonance/ride/arm-gcc/bin/../lib/gcc/arm-none-eabi/4.5.2/../../../../arm-none-eabi/lib/thumb2\libc.a(lib_a-malloc.o)
                              c:/program files/raisonance/ride/arm-gcc/bin/../lib/gcc/arm-none-eabi/4.5.2/../../../../arm-none-eabi/lib/thumb2\libc.a(lib_a-dtoa.o) (malloc)
c:/program files/raisonance/ride/arm-gcc/bin/../lib/gcc/arm-none-eabi/4.5.2/../../../../arm-none-eabi/lib/thumb2\libc.a(lib_a-mallocr.o)
                              c:/program files/raisonance/ride/arm-gcc/bin/../lib/gcc/arm-none-eabi/4.5.2/../../../../arm-none-eabi/lib/thumb2\libc.a(lib_a-svfprintf.o) (_malloc_r)
c:/program files/raisonance/ride/arm-gcc/bin/../lib/gcc/arm-none-eabi/4.5.2/../../../../arm-none-eabi/lib/thumb2\libc.a(lib_a-memchr.o)
                              c:/program files/raisonance/ride/arm-gcc/bin/../lib/gcc/arm-none-eabi/4.5.2/../../../../arm-none-eabi/lib/thumb2\libc.a(lib_a-svfprintf.o) (memchr)
c:/program files/raisonance/ride/arm-gcc/bin/../lib/gcc/arm-none-eabi/4.5.2/../../../../arm-none-eabi/lib/thumb2\libc.a(lib_a-mlock.o)
                              c:/program files/raisonance/ride/arm-gcc/bin/../lib/gcc/arm-none-eabi/4.5.2/../../../../arm-none-eabi/lib/thumb2\libc.a(lib_a-mallocr.o) (__malloc_lock)
c:/program files/raisonance/ride/arm-gcc/bin/../lib/gcc/arm-none-eabi/4.5.2/../../../../arm-none-eabi/lib/thumb2\libc.a(lib_a-mprec.o)
                              c:/program files/raisonance/ride/arm-gcc/bin/../lib/gcc/arm-none-eabi/4.5.2/../../../../arm-none-eabi/lib/thumb2\libc.a(lib_a-dtoa.o) (_Balloc)
c:/program files/raisonance/ride/arm-gcc/bin/../lib/gcc/arm-none-eabi/4.5.2/../../../../arm-none-eabi/lib/thumb2\libc.a(lib_a-s_fpclassify.o)
                              c:/program files/raisonance/ride/arm-gcc/bin/../lib/gcc/arm-none-eabi/4.5.2/../../../../arm-none-eabi/lib/thumb2\libc.a(lib_a-svfprintf.o) (__fpclassifyd)
c:/program files/raisonance/ride/arm-gcc/bin/../lib/gcc/arm-none-eabi/4.5.2/../../../../arm-none-eabi/lib/thumb2\libc.a(lib_a-sbrkr.o)
                              c:/program files/raisonance/ride/arm-gcc/bin/../lib/gcc/arm-none-eabi/4.5.2/../../../../arm-none-eabi/lib/thumb2\libc.a(lib_a-mallocr.o) (_sbrk_r)
c:/program files/raisonance/ride/arm-gcc/bin/../lib/gcc/arm-none-eabi/4.5.2/../../../../arm-none-eabi/lib/thumb2\libc.a(lib_a-strcmp.o)
                              c:/program files/raisonance/ride/arm-gcc/bin/../lib/gcc/arm-none-eabi/4.5.2/../../../../arm-none-eabi/lib/thumb2\libc.a(lib_a-locale.o) (strcmp)
c:/program files/raisonance/ride/arm-gcc/bin/../lib/gcc/arm-none-eabi/4.5.2/../../../../arm-none-eabi/lib/thumb2\libc.a(lib_a-svfiprintf.o)
                              c:/program files/raisonance/ride/arm-gcc/bin/../lib/gcc/arm-none-eabi/4.5.2/../../../../arm-none-eabi/lib/thumb2\libc.a(lib_a-svfprintf.o) (__ssprint_r)
c:/program files/raisonance/ride/arm-gcc/bin/../lib/gcc/arm-none-eabi/4.5.2/../../../../arm-none-eabi/lib/thumb2\libc.a(lib_a-callocr.o)
                              c:/program files/raisonance/ride/arm-gcc/bin/../lib/gcc/arm-none-eabi/4.5.2/../../../../arm-none-eabi/lib/thumb2\libc.a(lib_a-mprec.o) (_calloc_r)
c:/program files/raisonance/ride/arm-gcc/bin/../lib/gcc/arm-none-eabi/4.5.2/../../../../arm-none-eabi/lib/thumb2\libc.a(lib_a-freer.o)
                              c:/program files/raisonance/ride/arm-gcc/bin/../lib/gcc/arm-none-eabi/4.5.2/../../../../arm-none-eabi/lib/thumb2\libc.a(lib_a-malloc.o) (_free_r)
c:/program files/raisonance/ride/arm-gcc/bin/../lib/gcc/arm-none-eabi/4.5.2/../../../../arm-none-eabi/lib/thumb2\libc.a(lib_a-memmove.o)
                              c:/program files/raisonance/ride/arm-gcc/bin/../lib/gcc/arm-none-eabi/4.5.2/../../../../arm-none-eabi/lib/thumb2\libc.a(lib_a-svfiprintf.o) (memmove)
c:/program files/raisonance/ride/arm-gcc/bin/../lib/gcc/arm-none-eabi/4.5.2/../../../../arm-none-eabi/lib/thumb2\libc.a(lib_a-reallocr.o)
                              c:/program files/raisonance/ride/arm-gcc/bin/../lib/gcc/arm-none-eabi/4.5.2/../../../../arm-none-eabi/lib/thumb2\libc.a(lib_a-svfiprintf.o) (_realloc_r)
c:/program files/raisonance/ride/arm-gcc/bin/../lib/gcc/arm-none-eabi/4.5.2/../../../../arm-none-eabi/lib/thumb2\libc.a(lib_a-reent.o)
                              c:/program files/raisonance/ride/arm-gcc/bin/../lib/gcc/arm-none-eabi/4.5.2/../../../../arm-none-eabi/lib/thumb2\libc.a(lib_a-sbrkr.o) (errno)
c:/program files/raisonance/ride/arm-gcc/bin/../lib/gcc/arm-none-eabi/4.5.2/../../../../arm-none-eabi/lib/thumb2\libm.a(lib_a-w_sqrt.o)
                              D:\svn\stm32\stm32_high\sw\prj\RIDE\all_demo\touch.o (sqrt)
c:/program files/raisonance/ride/arm-gcc/bin/../lib/gcc/arm-none-eabi/4.5.2/../../../../arm-none-eabi/lib/thumb2\libm.a(lib_a-e_sqrt.o)
                              c:/program files/raisonance/ride/arm-gcc/bin/../lib/gcc/arm-none-eabi/4.5.2/../../../../arm-none-eabi/lib/thumb2\libm.a(lib_a-w_sqrt.o) (__ieee754_sqrt)
c:/program files/raisonance/ride/arm-gcc/bin/../lib/gcc/arm-none-eabi/4.5.2/../../../../arm-none-eabi/lib/thumb2\libm.a(lib_a-s_lib_ver.o)
                              c:/program files/raisonance/ride/arm-gcc/bin/../lib/gcc/arm-none-eabi/4.5.2/../../../../arm-none-eabi/lib/thumb2\libm.a(lib_a-w_sqrt.o) (__fdlib_version)
c:/program files/raisonance/ride/arm-gcc/bin/../lib/gcc/arm-none-eabi/4.5.2/../../../../arm-none-eabi/lib/thumb2\libm.a(lib_a-s_matherr.o)
                              c:/program files/raisonance/ride/arm-gcc/bin/../lib/gcc/arm-none-eabi/4.5.2/../../../../arm-none-eabi/lib/thumb2\libm.a(lib_a-w_sqrt.o) (matherr)
C:\Program Files\Raisonance\Ride\Lib\ARM\std_sbrk_thumb.lib(sbrk.o)
                              c:/program files/raisonance/ride/arm-gcc/bin/../lib/gcc/arm-none-eabi/4.5.2/../../../../arm-none-eabi/lib/thumb2\libc.a(lib_a-sbrkr.o) (_sbrk)
c:/program files/raisonance/ride/arm-gcc/bin/../lib/gcc/arm-none-eabi/4.5.2/../../../../arm-none-eabi/lib/thumb2\libc.a(lib_a-errno.o)
                              c:/program files/raisonance/ride/arm-gcc/bin/../lib/gcc/arm-none-eabi/4.5.2/../../../../arm-none-eabi/lib/thumb2\libm.a(lib_a-w_sqrt.o) (__errno)
c:/program files/raisonance/ride/arm-gcc/bin/../lib/gcc/arm-none-eabi/4.5.2/thumb2\libgcc.a(_udivsi3.o)
                              c:/program files/raisonance/ride/arm-gcc/bin/../lib/gcc/arm-none-eabi/4.5.2/../../../../arm-none-eabi/lib/thumb2\libc.a(lib_a-dtoa.o) (__aeabi_uidiv)
c:/program files/raisonance/ride/arm-gcc/bin/../lib/gcc/arm-none-eabi/4.5.2/thumb2\libgcc.a(_dvmd_tls.o)
                              c:/program files/raisonance/ride/arm-gcc/bin/../lib/gcc/arm-none-eabi/4.5.2/thumb2\libgcc.a(_udivsi3.o) (__aeabi_idiv0)
c:/program files/raisonance/ride/arm-gcc/bin/../lib/gcc/arm-none-eabi/4.5.2/thumb2\libgcc.a(_arm_addsubdf3.o)
                              c:/program files/raisonance/ride/arm-gcc/bin/../lib/gcc/arm-none-eabi/4.5.2/../../../../arm-none-eabi/lib/thumb2\libc.a(lib_a-dtoa.o) (__aeabi_dsub)
c:/program files/raisonance/ride/arm-gcc/bin/../lib/gcc/arm-none-eabi/4.5.2/thumb2\libgcc.a(_arm_muldivdf3.o)
                              D:\svn\stm32\stm32_high\sw\prj\RIDE\all_demo\main.o (__aeabi_dmul)
c:/program files/raisonance/ride/arm-gcc/bin/../lib/gcc/arm-none-eabi/4.5.2/thumb2\libgcc.a(_arm_cmpdf2.o)
                              c:/program files/raisonance/ride/arm-gcc/bin/../lib/gcc/arm-none-eabi/4.5.2/../../../../arm-none-eabi/lib/thumb2\libc.a(lib_a-svfprintf.o) (__aeabi_dcmpeq)
c:/program files/raisonance/ride/arm-gcc/bin/../lib/gcc/arm-none-eabi/4.5.2/thumb2\libgcc.a(_arm_fixdfsi.o)
                              c:/program files/raisonance/ride/arm-gcc/bin/../lib/gcc/arm-none-eabi/4.5.2/../../../../arm-none-eabi/lib/thumb2\libc.a(lib_a-dtoa.o) (__aeabi_d2iz)
c:/program files/raisonance/ride/arm-gcc/bin/../lib/gcc/arm-none-eabi/4.5.2/thumb2\libgcc.a(_arm_fixunsdfsi.o)
                              D:\svn\stm32\stm32_high\sw\prj\RIDE\all_demo\touch.o (__aeabi_d2uiz)
c:/program files/raisonance/ride/arm-gcc/bin/../lib/gcc/arm-none-eabi/4.5.2/thumb2\libgcc.a(_arm_addsubsf3.o)
                              D:\svn\stm32\stm32_high\sw\prj\RIDE\all_demo\touch.o (__aeabi_fsub)
c:/program files/raisonance/ride/arm-gcc/bin/../lib/gcc/arm-none-eabi/4.5.2/thumb2\libgcc.a(_arm_muldivsf3.o)
                              D:\svn\stm32\stm32_high\sw\prj\RIDE\all_demo\main.o (__aeabi_fmul)
c:/program files/raisonance/ride/arm-gcc/bin/../lib/gcc/arm-none-eabi/4.5.2/thumb2\libgcc.a(_arm_cmpsf2.o)
                              D:\svn\stm32\stm32_high\sw\prj\RIDE\all_demo\main.o (__aeabi_fcmpeq)
c:/program files/raisonance/ride/arm-gcc/bin/../lib/gcc/arm-none-eabi/4.5.2/thumb2\libgcc.a(_arm_fixsfsi.o)
                              D:\svn\stm32\stm32_high\sw\prj\RIDE\all_demo\touch.o (__aeabi_f2iz)
c:/program files/raisonance/ride/arm-gcc/bin/../lib/gcc/arm-none-eabi/4.5.2/thumb2\libgcc.a(_arm_fixunssfsi.o)
                              D:\svn\stm32\stm32_high\sw\prj\RIDE\all_demo\main.o (__aeabi_f2uiz)
c:/program files/raisonance/ride/arm-gcc/bin/../lib/gcc/arm-none-eabi/4.5.2/thumb2\libgcc.a(_aeabi_uldivmod.o)
                              c:/program files/raisonance/ride/arm-gcc/bin/../lib/gcc/arm-none-eabi/4.5.2/../../../../arm-none-eabi/lib/thumb2\libc.a(lib_a-svfprintf.o) (__aeabi_uldivmod)
c:/program files/raisonance/ride/arm-gcc/bin/../lib/gcc/arm-none-eabi/4.5.2/thumb2\libgcc.a(bpabi.o)
                              c:/program files/raisonance/ride/arm-gcc/bin/../lib/gcc/arm-none-eabi/4.5.2/thumb2\libgcc.a(_aeabi_uldivmod.o) (__gnu_uldivmod_helper)
c:/program files/raisonance/ride/arm-gcc/bin/../lib/gcc/arm-none-eabi/4.5.2/thumb2\libgcc.a(_divdi3.o)
                              c:/program files/raisonance/ride/arm-gcc/bin/../lib/gcc/arm-none-eabi/4.5.2/thumb2\libgcc.a(bpabi.o) (__divdi3)
c:/program files/raisonance/ride/arm-gcc/bin/../lib/gcc/arm-none-eabi/4.5.2/thumb2\libgcc.a(_udivdi3.o)
                              c:/program files/raisonance/ride/arm-gcc/bin/../lib/gcc/arm-none-eabi/4.5.2/thumb2\libgcc.a(bpabi.o) (__udivdi3)

Allocating common symbols
Common symbol       size              file

SaveRState          0x2               D:\svn\stm32\stm32_high\sw\prj\RIDE\all_demo\usb_int.o
HSEStartUpStatus    0x1               D:\svn\stm32\stm32_high\sw\prj\RIDE\all_demo\hw_config.o
gbl_usart1_rx_buff_proc
                    0x44              D:\svn\stm32\stm32_high\sw\prj\RIDE\all_demo\usart.o
gbl_qlist_usart1_rx
                    0x10              D:\svn\stm32\stm32_high\sw\prj\RIDE\all_demo\usart.o
dirs                0x1c              D:\svn\stm32\stm32_high\sw\prj\RIDE\all_demo\main.o
CAN_DATA7           0x1               D:\svn\stm32\stm32_high\sw\prj\RIDE\all_demo\stm32f10x_it.o
gbl_usart1_rx_buff_dma
                    0x40              D:\svn\stm32\stm32_high\sw\prj\RIDE\all_demo\usart.o
SaveState           0x2               D:\svn\stm32\stm32_high\sw\prj\RIDE\all_demo\usb_init.o
errno               0x4               c:/program files/raisonance/ride/arm-gcc/bin/../lib/gcc/arm-none-eabi/4.5.2/../../../../arm-none-eabi/lib/thumb2\libc.a(lib_a-reent.o)
fs                  0x230             D:\svn\stm32\stm32_high\sw\prj\RIDE\all_demo\main.o
gbl_qdata_usart1_tx
                    0x400             D:\svn\stm32\stm32_high\sw\prj\RIDE\all_demo\usart.o
ProtocolValue       0x4               D:\svn\stm32\stm32_high\sw\prj\RIDE\all_demo\usb_prop.o
CAN_DATA3           0x1               D:\svn\stm32\stm32_high\sw\prj\RIDE\all_demo\stm32f10x_it.o
finfo               0x18              D:\svn\stm32\stm32_high\sw\prj\RIDE\all_demo\main.o
CAN_DATA2           0x1               D:\svn\stm32\stm32_high\sw\prj\RIDE\all_demo\stm32f10x_it.o
wIstr               0x2               D:\svn\stm32\stm32_high\sw\prj\RIDE\all_demo\usb_istr.o
pProperty           0x4               D:\svn\stm32\stm32_high\sw\prj\RIDE\all_demo\usb_init.o
CAN_DATA1           0x1               D:\svn\stm32\stm32_high\sw\prj\RIDE\all_demo\stm32f10x_it.o
EPindex             0x1               D:\svn\stm32\stm32_high\sw\prj\RIDE\all_demo\usb_init.o
gbl_qlist_usart1_tx
                    0x10              D:\svn\stm32\stm32_high\sw\prj\RIDE\all_demo\usart.o
gbl_qdata_usart1_rx_free
                    0xa0              D:\svn\stm32\stm32_high\sw\prj\RIDE\all_demo\usart.o
SaveTState          0x2               D:\svn\stm32\stm32_high\sw\prj\RIDE\all_demo\usb_int.o
fsrc                0x224             D:\svn\stm32\stm32_high\sw\prj\RIDE\all_demo\main.o
Device_Info         0x1c              D:\svn\stm32\stm32_high\sw\prj\RIDE\all_demo\usb_init.o
gbl_qlist_usart1_tx_free
                    0x10              D:\svn\stm32\stm32_high\sw\prj\RIDE\all_demo\usart.o
pUser_Standard_Requests
                    0x4               D:\svn\stm32\stm32_high\sw\prj\RIDE\all_demo\usb_init.o
buffer              0x200             D:\svn\stm32\stm32_high\sw\prj\RIDE\all_demo\main.o
gbl_qdata_usart1_tx_free
                    0x400             D:\svn\stm32\stm32_high\sw\prj\RIDE\all_demo\usart.o
s1963gpio           0x1               D:\svn\stm32\stm32_high\sw\prj\RIDE\all_demo\lcd70.o
StatusInfo          0x2               D:\svn\stm32\stm32_high\sw\prj\RIDE\all_demo\usb_core.o
CAN_DATA6           0x1               D:\svn\stm32\stm32_high\sw\prj\RIDE\all_demo\stm32f10x_it.o
pInformation        0x4               D:\svn\stm32\stm32_high\sw\prj\RIDE\all_demo\usb_init.o
ResumeS             0x2               D:\svn\stm32\stm32_high\sw\prj\RIDE\all_demo\usb_pwr.o
CanFlag             0x1               D:\svn\stm32\stm32_high\sw\prj\RIDE\all_demo\stm32f10x_it.o
gbl_qlist_usart1_rx_free
                    0x10              D:\svn\stm32\stm32_high\sw\prj\RIDE\all_demo\usart.o
gbl_qdata_usart1_rx
                    0xa0              D:\svn\stm32\stm32_high\sw\prj\RIDE\all_demo\usart.o
gbl_usart1_tx_buff_dma
                    0x40              D:\svn\stm32\stm32_high\sw\prj\RIDE\all_demo\usart.o
CAN_ID              0x2               D:\svn\stm32\stm32_high\sw\prj\RIDE\all_demo\stm32f10x_it.o
CAN_DATA5           0x1               D:\svn\stm32\stm32_high\sw\prj\RIDE\all_demo\stm32f10x_it.o
Pen_Point           0x18              D:\svn\stm32\stm32_high\sw\prj\RIDE\all_demo\touch.o
CAN_DATA0           0x1               D:\svn\stm32\stm32_high\sw\prj\RIDE\all_demo\stm32f10x_it.o
res                 0x1               D:\svn\stm32\stm32_high\sw\prj\RIDE\all_demo\main.o
CAN_DATA4           0x1               D:\svn\stm32\stm32_high\sw\prj\RIDE\all_demo\stm32f10x_it.o
gbl_usart1_rx_buff  0x280             D:\svn\stm32\stm32_high\sw\prj\RIDE\all_demo\usart.o
Display             0x1               D:\svn\stm32\stm32_high\sw\prj\RIDE\all_demo\stm32f10x_it.o
wInterrupt_Mask     0x2               D:\svn\stm32\stm32_high\sw\prj\RIDE\all_demo\usb_init.o
gbl_usart1_tx_buff  0x1000            D:\svn\stm32\stm32_high\sw\prj\RIDE\all_demo\usart.o

Discarded input sections

 .text          0x00000000        0x0 D:\svn\stm32\stm32_high\sw\prj\RIDE\all_demo\vs1003b.o
 .data          0x00000000        0x8 D:\svn\stm32\stm32_high\sw\prj\RIDE\all_demo\vs1003b.o
 .bss           0x00000000        0x0 D:\svn\stm32\stm32_high\sw\prj\RIDE\all_demo\vs1003b.o
 .text.VsSineTest
                0x00000000      0x190 D:\svn\stm32\stm32_high\sw\prj\RIDE\all_demo\vs1003b.o
 .text.GetHeadInfo
                0x00000000       0xa4 D:\svn\stm32\stm32_high\sw\prj\RIDE\all_demo\vs1003b.o
 .text.ResetDecodeTime
                0x00000000       0x1c D:\svn\stm32\stm32_high\sw\prj\RIDE\all_demo\vs1003b.o
 .text.GetDecodeTime
                0x00000000        0xc D:\svn\stm32\stm32_high\sw\prj\RIDE\all_demo\vs1003b.o
 .text.LoadPatch
                0x00000000       0x30 D:\svn\stm32\stm32_high\sw\prj\RIDE\all_demo\vs1003b.o
 .text.GetSpec  0x00000000       0x2c D:\svn\stm32\stm32_high\sw\prj\RIDE\all_demo\vs1003b.o
 .text.set1003  0x00000000       0x48 D:\svn\stm32\stm32_high\sw\prj\RIDE\all_demo\vs1003b.o
 .text.Vs1003_DATA_Write
                0x00000000       0x38 D:\svn\stm32\stm32_high\sw\prj\RIDE\all_demo\vs1003b.o
 .text.VS1003B_Reset
                0x00000000       0x5c D:\svn\stm32\stm32_high\sw\prj\RIDE\all_demo\vs1003b.o
 .text.VsRamTest
                0x00000000       0x88 D:\svn\stm32\stm32_high\sw\prj\RIDE\all_demo\vs1003b.o
 .text.vs1003b_volume_set
                0x00000000       0x10 D:\svn\stm32\stm32_high\sw\prj\RIDE\all_demo\vs1003b.o
 .rodata        0x00000000      0xb50 D:\svn\stm32\stm32_high\sw\prj\RIDE\all_demo\vs1003b.o
 .text          0x00000000        0x0 D:\svn\stm32\stm32_high\sw\prj\RIDE\all_demo\adc.o
 .data          0x00000000        0x0 D:\svn\stm32\stm32_high\sw\prj\RIDE\all_demo\adc.o
 .bss           0x00000000        0x0 D:\svn\stm32\stm32_high\sw\prj\RIDE\all_demo\adc.o
 .text          0x00000000        0x0 D:\svn\stm32\stm32_high\sw\prj\RIDE\all_demo\at24c02.o
 .data          0x00000000        0x0 D:\svn\stm32\stm32_high\sw\prj\RIDE\all_demo\at24c02.o
 .bss           0x00000000        0x0 D:\svn\stm32\stm32_high\sw\prj\RIDE\all_demo\at24c02.o
 .text.AT24CXX_Write_Delay
                0x00000000       0x10 D:\svn\stm32\stm32_high\sw\prj\RIDE\all_demo\at24c02.o
 .text.AT24CXX_WriteLenByte
                0x00000000       0x38 D:\svn\stm32\stm32_high\sw\prj\RIDE\all_demo\at24c02.o
 .text.AT24CXX_ReadLenByte
                0x00000000       0x40 D:\svn\stm32\stm32_high\sw\prj\RIDE\all_demo\at24c02.o
 .text.AT24CXX_Read
                0x00000000       0x24 D:\svn\stm32\stm32_high\sw\prj\RIDE\all_demo\at24c02.o
 .text.AT24CXX_Write
                0x00000000       0x24 D:\svn\stm32\stm32_high\sw\prj\RIDE\all_demo\at24c02.o
 .text          0x00000000        0x0 D:\svn\stm32\stm32_high\sw\prj\RIDE\all_demo\buzzer.o
 .data          0x00000000        0x0 D:\svn\stm32\stm32_high\sw\prj\RIDE\all_demo\buzzer.o
 .bss           0x00000000        0x0 D:\svn\stm32\stm32_high\sw\prj\RIDE\all_demo\buzzer.o
 .text          0x00000000        0x0 D:\svn\stm32\stm32_high\sw\prj\RIDE\all_demo\can.o
 .data          0x00000000        0x0 D:\svn\stm32\stm32_high\sw\prj\RIDE\all_demo\can.o
 .text          0x00000000        0x0 D:\svn\stm32\stm32_high\sw\prj\RIDE\all_demo\dac.o
 .data          0x00000000        0x0 D:\svn\stm32\stm32_high\sw\prj\RIDE\all_demo\dac.o
 .bss           0x00000000        0x0 D:\svn\stm32\stm32_high\sw\prj\RIDE\all_demo\dac.o
 .text.bsp_dac_gpio_init
                0x00000000       0x28 D:\svn\stm32\stm32_high\sw\prj\RIDE\all_demo\dac.o
 .text.bsp_dac_init
                0x00000000       0xc0 D:\svn\stm32\stm32_high\sw\prj\RIDE\all_demo\dac.o
 .rodata        0x00000000        0x8 D:\svn\stm32\stm32_high\sw\prj\RIDE\all_demo\dac.o
 .text          0x00000000        0x0 D:\svn\stm32\stm32_high\sw\prj\RIDE\all_demo\diskio.o
 .data          0x00000000        0x0 D:\svn\stm32\stm32_high\sw\prj\RIDE\all_demo\diskio.o
 .bss           0x00000000        0x0 D:\svn\stm32\stm32_high\sw\prj\RIDE\all_demo\diskio.o
 .text          0x00000000        0x0 D:\svn\stm32\stm32_high\sw\prj\RIDE\all_demo\ff.o
 .data          0x00000000        0x0 D:\svn\stm32\stm32_high\sw\prj\RIDE\all_demo\ff.o
 .text.dir_remove
                0x00000000       0x30 D:\svn\stm32\stm32_high\sw\prj\RIDE\all_demo\ff.o
 .text.f_write  0x00000000      0x20c D:\svn\stm32\stm32_high\sw\prj\RIDE\all_demo\ff.o
 .text.f_lseek  0x00000000      0x1e4 D:\svn\stm32\stm32_high\sw\prj\RIDE\all_demo\ff.o
 .text.f_stat   0x00000000       0x44 D:\svn\stm32\stm32_high\sw\prj\RIDE\all_demo\ff.o
 .text.f_getfree
                0x00000000      0x104 D:\svn\stm32\stm32_high\sw\prj\RIDE\all_demo\ff.o
 .text.f_truncate
                0x00000000       0xa0 D:\svn\stm32\stm32_high\sw\prj\RIDE\all_demo\ff.o
 .text.f_unlink
                0x00000000       0xc4 D:\svn\stm32\stm32_high\sw\prj\RIDE\all_demo\ff.o
 .text.f_mkdir  0x00000000      0x1f8 D:\svn\stm32\stm32_high\sw\prj\RIDE\all_demo\ff.o
 .text.f_chmod  0x00000000       0x60 D:\svn\stm32\stm32_high\sw\prj\RIDE\all_demo\ff.o
 .text.f_utime  0x00000000       0x64 D:\svn\stm32\stm32_high\sw\prj\RIDE\all_demo\ff.o
 .text.f_rename
                0x00000000      0x134 D:\svn\stm32\stm32_high\sw\prj\RIDE\all_demo\ff.o
 .text          0x00000000        0x0 D:\svn\stm32\stm32_high\sw\prj\RIDE\all_demo\font.o
 .data          0x00000000        0x0 D:\svn\stm32\stm32_high\sw\prj\RIDE\all_demo\font.o
 .bss           0x00000000        0x0 D:\svn\stm32\stm32_high\sw\prj\RIDE\all_demo\font.o
 .text          0x00000000        0x0 D:\svn\stm32\stm32_high\sw\prj\RIDE\all_demo\hw_config.o
 .data          0x00000000        0x0 D:\svn\stm32\stm32_high\sw\prj\RIDE\all_demo\hw_config.o
 .bss           0x00000000        0x0 D:\svn\stm32\stm32_high\sw\prj\RIDE\all_demo\hw_config.o
 .text.JTAG_Set
                0x00000000       0x28 D:\svn\stm32\stm32_high\sw\prj\RIDE\all_demo\hw_config.o
 .text          0x00000000        0x0 D:\svn\stm32\stm32_high\sw\prj\RIDE\all_demo\icon.o
 .data          0x00000000        0x0 D:\svn\stm32\stm32_high\sw\prj\RIDE\all_demo\icon.o
 .bss           0x00000000        0x0 D:\svn\stm32\stm32_high\sw\prj\RIDE\all_demo\icon.o
 .text          0x00000000        0x0 D:\svn\stm32\stm32_high\sw\prj\RIDE\all_demo\iic.o
 .data          0x00000000        0x0 D:\svn\stm32\stm32_high\sw\prj\RIDE\all_demo\iic.o
 .bss           0x00000000        0x0 D:\svn\stm32\stm32_high\sw\prj\RIDE\all_demo\iic.o
 .text          0x00000000        0x0 D:\svn\stm32\stm32_high\sw\prj\RIDE\all_demo\key.o
 .data          0x00000000        0x0 D:\svn\stm32\stm32_high\sw\prj\RIDE\all_demo\key.o
 .rodata        0x00000000       0x38 D:\svn\stm32\stm32_high\sw\prj\RIDE\all_demo\key.o
 .text          0x00000000        0x0 D:\svn\stm32\stm32_high\sw\prj\RIDE\all_demo\lcd28.o
 .data          0x00000000        0x0 D:\svn\stm32\stm32_high\sw\prj\RIDE\all_demo\lcd28.o
 .bss           0x00000000        0x0 D:\svn\stm32\stm32_high\sw\prj\RIDE\all_demo\lcd28.o
 .text.lcd28_fill_color
                0x00000000       0x98 D:\svn\stm32\stm32_high\sw\prj\RIDE\all_demo\lcd28.o
 .text.lcd28_draw_rectangle
                0x00000000       0x38 D:\svn\stm32\stm32_high\sw\prj\RIDE\all_demo\lcd28.o
 .text.lcd28_draw_circle
                0x00000000       0xe4 D:\svn\stm32\stm32_high\sw\prj\RIDE\all_demo\lcd28.o
 .text.lcd28_show_num
                0x00000000       0xb4 D:\svn\stm32\stm32_high\sw\prj\RIDE\all_demo\lcd28.o
 .text          0x00000000        0x0 D:\svn\stm32\stm32_high\sw\prj\RIDE\all_demo\lcd32.o
 .data          0x00000000        0x0 D:\svn\stm32\stm32_high\sw\prj\RIDE\all_demo\lcd32.o
 .bss           0x00000000        0x0 D:\svn\stm32\stm32_high\sw\prj\RIDE\all_demo\lcd32.o
 .text.lcd32_fill_color
                0x00000000       0x98 D:\svn\stm32\stm32_high\sw\prj\RIDE\all_demo\lcd32.o
 .text.lcd32_draw_rectangle
                0x00000000       0x38 D:\svn\stm32\stm32_high\sw\prj\RIDE\all_demo\lcd32.o
 .text.lcd32_draw_circle
                0x00000000       0xe4 D:\svn\stm32\stm32_high\sw\prj\RIDE\all_demo\lcd32.o
 .text.lcd32_show_num
                0x00000000       0xb4 D:\svn\stm32\stm32_high\sw\prj\RIDE\all_demo\lcd32.o
 .text          0x00000000        0x0 D:\svn\stm32\stm32_high\sw\prj\RIDE\all_demo\lcd43.o
 .bss           0x00000000        0x0 D:\svn\stm32\stm32_high\sw\prj\RIDE\all_demo\lcd43.o
 .text.lcd43_draw_circle
                0x00000000       0xfc D:\svn\stm32\stm32_high\sw\prj\RIDE\all_demo\lcd43.o
 .text.lcd43_show_big_num
                0x00000000      0x11c D:\svn\stm32\stm32_high\sw\prj\RIDE\all_demo\lcd43.o
 .text          0x00000000        0x0 D:\svn\stm32\stm32_high\sw\prj\RIDE\all_demo\lcd70.o
 .bss           0x00000000        0x0 D:\svn\stm32\stm32_high\sw\prj\RIDE\all_demo\lcd70.o
 .text.lcd70_clear_screen_test
                0x00000000       0x30 D:\svn\stm32\stm32_high\sw\prj\RIDE\all_demo\lcd70.o
 .text.lcd70_draw_circle
                0x00000000       0xfc D:\svn\stm32\stm32_high\sw\prj\RIDE\all_demo\lcd70.o
 COMMON         0x00000000        0x1 D:\svn\stm32\stm32_high\sw\prj\RIDE\all_demo\lcd70.o
 .text          0x00000000        0x0 D:\svn\stm32\stm32_high\sw\prj\RIDE\all_demo\lcd1602.o
 .data          0x00000000        0x0 D:\svn\stm32\stm32_high\sw\prj\RIDE\all_demo\lcd1602.o
 .bss           0x00000000        0x0 D:\svn\stm32\stm32_high\sw\prj\RIDE\all_demo\lcd1602.o
 .text.LCD1602_wrCGRAM
                0x00000000       0x2c D:\svn\stm32\stm32_high\sw\prj\RIDE\all_demo\lcd1602.o
 .text.LCD1602_disCGRAM
                0x00000000       0x40 D:\svn\stm32\stm32_high\sw\prj\RIDE\all_demo\lcd1602.o
 .text          0x00000000        0x0 D:\svn\stm32\stm32_high\sw\prj\RIDE\all_demo\lcd12864.o
 .data          0x00000000        0x0 D:\svn\stm32\stm32_high\sw\prj\RIDE\all_demo\lcd12864.o
 .bss           0x00000000        0x0 D:\svn\stm32\stm32_high\sw\prj\RIDE\all_demo\lcd12864.o
 .text.Set_Draw
                0x00000000       0x30 D:\svn\stm32\stm32_high\sw\prj\RIDE\all_demo\lcd12864.o
 .text.Draw_Pic
                0x00000000       0xbc D:\svn\stm32\stm32_high\sw\prj\RIDE\all_demo\lcd12864.o
 .text.Lcd_flash
                0x00000000       0x48 D:\svn\stm32\stm32_high\sw\prj\RIDE\all_demo\lcd12864.o
 .text.Move     0x00000000       0x30 D:\svn\stm32\stm32_high\sw\prj\RIDE\all_demo\lcd12864.o
 .text.LCD12864_GPIO_INPUT
                0x00000000       0x2c D:\svn\stm32\stm32_high\sw\prj\RIDE\all_demo\lcd12864.o
 .text          0x00000000        0x0 D:\svn\stm32\stm32_high\sw\prj\RIDE\all_demo\lcd.o
 .text.lcd_wr_cmd
                0x00000000        0xc D:\svn\stm32\stm32_high\sw\prj\RIDE\all_demo\lcd.o
 .text.lcd_wr_data_8
                0x00000000        0xc D:\svn\stm32\stm32_high\sw\prj\RIDE\all_demo\lcd.o
 .text.mypow    0x00000000       0x24 D:\svn\stm32\stm32_high\sw\prj\RIDE\all_demo\lcd.o
 .text          0x00000000        0x0 D:\svn\stm32\stm32_high\sw\prj\RIDE\all_demo\led.o
 .data          0x00000000        0x0 D:\svn\stm32\stm32_high\sw\prj\RIDE\all_demo\led.o
 .bss           0x00000000        0x0 D:\svn\stm32\stm32_high\sw\prj\RIDE\all_demo\led.o
 .text.bsp_led_bottom_toggle
                0x00000000       0x34 D:\svn\stm32\stm32_high\sw\prj\RIDE\all_demo\led.o
 .text          0x00000000        0x0 D:\svn\stm32\stm32_high\sw\prj\RIDE\all_demo\main.o
 .text.service_mp3play_exit
                0x00000000       0x10 D:\svn\stm32\stm32_high\sw\prj\RIDE\all_demo\main.o
 .text          0x00000000        0x0 D:\svn\stm32\stm32_high\sw\prj\RIDE\all_demo\mmc_sd.o
 .data          0x00000000        0x0 D:\svn\stm32\stm32_high\sw\prj\RIDE\all_demo\mmc_sd.o
 .text.SD_GetCID
                0x00000000       0x2c D:\svn\stm32\stm32_high\sw\prj\RIDE\all_demo\mmc_sd.o
 .text.MSD_WriteBuffer
                0x00000000       0xc4 D:\svn\stm32\stm32_high\sw\prj\RIDE\all_demo\mmc_sd.o
 .text.MSD_ReadBuffer
                0x00000000       0xa4 D:\svn\stm32\stm32_high\sw\prj\RIDE\all_demo\mmc_sd.o
 .text.SD_Read_Bytes
                0x00000000       0xc4 D:\svn\stm32\stm32_high\sw\prj\RIDE\all_demo\mmc_sd.o
 .text          0x00000000        0x0 D:\svn\stm32\stm32_high\sw\prj\RIDE\all_demo\nrf24l01.o
 .data          0x00000000        0x0 D:\svn\stm32\stm32_high\sw\prj\RIDE\all_demo\nrf24l01.o
 .bss           0x00000000        0x0 D:\svn\stm32\stm32_high\sw\prj\RIDE\all_demo\nrf24l01.o
 .text          0x00000000        0x0 D:\svn\stm32\stm32_high\sw\prj\RIDE\all_demo\queue.o
 .data          0x00000000        0x0 D:\svn\stm32\stm32_high\sw\prj\RIDE\all_demo\queue.o
 .bss           0x00000000        0x0 D:\svn\stm32\stm32_high\sw\prj\RIDE\all_demo\queue.o
 .text.q_init_list
                0x00000000        0xc D:\svn\stm32\stm32_high\sw\prj\RIDE\all_demo\queue.o
 .text.q_add_head
                0x00000000       0x20 D:\svn\stm32\stm32_high\sw\prj\RIDE\all_demo\queue.o
 .text          0x00000000        0x0 D:\svn\stm32\stm32_high\sw\prj\RIDE\all_demo\rs485.o
 .data          0x00000000        0x0 D:\svn\stm32\stm32_high\sw\prj\RIDE\all_demo\rs485.o
 .bss           0x00000000        0x0 D:\svn\stm32\stm32_high\sw\prj\RIDE\all_demo\rs485.o
 .text          0x00000000        0x0 D:\svn\stm32\stm32_high\sw\prj\RIDE\all_demo\rtc.o
 .data          0x00000000        0x0 D:\svn\stm32\stm32_high\sw\prj\RIDE\all_demo\rtc.o
 .text          0x00000000        0x0 D:\svn\stm32\stm32_high\sw\prj\RIDE\all_demo\spi.o
 .data          0x00000000        0x0 D:\svn\stm32\stm32_high\sw\prj\RIDE\all_demo\spi.o
 .bss           0x00000000        0x0 D:\svn\stm32\stm32_high\sw\prj\RIDE\all_demo\spi.o
 .text.bsp_set_spi1_speed
                0x00000000       0x74 D:\svn\stm32\stm32_high\sw\prj\RIDE\all_demo\spi.o
 .text.bsp_readwritebyte_spi1
                0x00000000       0x6c D:\svn\stm32\stm32_high\sw\prj\RIDE\all_demo\spi.o
 .text          0x00000000        0x0 D:\svn\stm32\stm32_high\sw\prj\RIDE\all_demo\stm32f10x_it.o
 .data          0x00000000        0x0 D:\svn\stm32\stm32_high\sw\prj\RIDE\all_demo\stm32f10x_it.o
 .bss           0x00000000        0x0 D:\svn\stm32\stm32_high\sw\prj\RIDE\all_demo\stm32f10x_it.o
 .text          0x00000000        0x0 D:\svn\stm32\stm32_high\sw\prj\RIDE\all_demo\timer.o
 .bss           0x00000000        0x0 D:\svn\stm32\stm32_high\sw\prj\RIDE\all_demo\timer.o
 .text.bsp_get_timer2_cnt
                0x00000000        0xc D:\svn\stm32\stm32_high\sw\prj\RIDE\all_demo\timer.o
 .text.bsp_set_timer2_cnt
                0x00000000        0x8 D:\svn\stm32\stm32_high\sw\prj\RIDE\all_demo\timer.o
 .text          0x00000000        0x0 D:\svn\stm32\stm32_high\sw\prj\RIDE\all_demo\touch.o
 .data          0x00000000        0x0 D:\svn\stm32\stm32_high\sw\prj\RIDE\all_demo\touch.o
 .text.bsp_touch_gpio_init_polling
                0x00000000       0x24 D:\svn\stm32\stm32_high\sw\prj\RIDE\all_demo\touch.o
 .text.bsp_touch_init_polling
                0x00000000        0xc D:\svn\stm32\stm32_high\sw\prj\RIDE\all_demo\touch.o
 .text.lcd43_touch_adjust_auto
                0x00000000       0x24 D:\svn\stm32\stm32_high\sw\prj\RIDE\all_demo\touch.o
 .text.lcd70_touch_adjust_auto
                0x00000000       0x24 D:\svn\stm32\stm32_high\sw\prj\RIDE\all_demo\touch.o
 .text          0x00000000        0x0 D:\svn\stm32\stm32_high\sw\prj\RIDE\all_demo\usart.o
 .text.usart1_transmit_byte
                0x00000000       0x10 D:\svn\stm32\stm32_high\sw\prj\RIDE\all_demo\usart.o
 .text.usart1_is_ne
                0x00000000       0x10 D:\svn\stm32\stm32_high\sw\prj\RIDE\all_demo\usart.o
 .text.usart3_transmit_string
                0x00000000       0x20 D:\svn\stm32\stm32_high\sw\prj\RIDE\all_demo\usart.o
 .text          0x00000000        0x0 D:\svn\stm32\stm32_high\sw\prj\RIDE\all_demo\usb_desc.o
 .bss           0x00000000        0x0 D:\svn\stm32\stm32_high\sw\prj\RIDE\all_demo\usb_desc.o
 .text          0x00000000        0x0 D:\svn\stm32\stm32_high\sw\prj\RIDE\all_demo\usb_istr.o
 .text          0x00000000        0x0 D:\svn\stm32\stm32_high\sw\prj\RIDE\all_demo\usb_prop.o
 .bss           0x00000000        0x0 D:\svn\stm32\stm32_high\sw\prj\RIDE\all_demo\usb_prop.o
 .text          0x00000000        0x0 D:\svn\stm32\stm32_high\sw\prj\RIDE\all_demo\usb_pwr.o
 .text.PowerOff
                0x00000000       0x2c D:\svn\stm32\stm32_high\sw\prj\RIDE\all_demo\usb_pwr.o
 .text          0x00000000       0x14 D:\svn\stm32\stm32_high\sw\prj\RIDE\all_demo\startup_stm32f10x_hd.o
 .data          0x00000000        0x0 D:\svn\stm32\stm32_high\sw\prj\RIDE\all_demo\startup_stm32f10x_hd.o
 .bss           0x00000000        0x0 D:\svn\stm32\stm32_high\sw\prj\RIDE\all_demo\startup_stm32f10x_hd.o
 .text          0x00000000        0x0 D:\svn\stm32\stm32_high\sw\prj\RIDE\all_demo\system_stm32f10x.o
 .data          0x00000000       0x14 D:\svn\stm32\stm32_high\sw\prj\RIDE\all_demo\system_stm32f10x.o
 .bss           0x00000000        0x0 D:\svn\stm32\stm32_high\sw\prj\RIDE\all_demo\system_stm32f10x.o
 .text.SystemCoreClockUpdate
                0x00000000       0x88 D:\svn\stm32\stm32_high\sw\prj\RIDE\all_demo\system_stm32f10x.o
 .text          0x00000000        0x0 D:\svn\stm32\stm32_high\sw\prj\RIDE\all_demo\usb_sil.o
 .data          0x00000000        0x0 D:\svn\stm32\stm32_high\sw\prj\RIDE\all_demo\usb_sil.o
 .bss           0x00000000        0x0 D:\svn\stm32\stm32_high\sw\prj\RIDE\all_demo\usb_sil.o
 .text.USB_SIL_Read
                0x00000000       0x24 D:\svn\stm32\stm32_high\sw\prj\RIDE\all_demo\usb_sil.o
 .text          0x00000000        0x0 D:\svn\stm32\stm32_high\sw\prj\RIDE\all_demo\otgd_fs_cal.o
 .data          0x00000000        0x0 D:\svn\stm32\stm32_high\sw\prj\RIDE\all_demo\otgd_fs_cal.o
 .bss           0x00000000        0x0 D:\svn\stm32\stm32_high\sw\prj\RIDE\all_demo\otgd_fs_cal.o
 .text          0x00000000        0x0 D:\svn\stm32\stm32_high\sw\prj\RIDE\all_demo\otgd_fs_dev.o
 .data          0x00000000        0x0 D:\svn\stm32\stm32_high\sw\prj\RIDE\all_demo\otgd_fs_dev.o
 .bss           0x00000000        0x0 D:\svn\stm32\stm32_high\sw\prj\RIDE\all_demo\otgd_fs_dev.o
 .text          0x00000000        0x0 D:\svn\stm32\stm32_high\sw\prj\RIDE\all_demo\otgd_fs_int.o
 .data          0x00000000        0x0 D:\svn\stm32\stm32_high\sw\prj\RIDE\all_demo\otgd_fs_int.o
 .bss           0x00000000        0x0 D:\svn\stm32\stm32_high\sw\prj\RIDE\all_demo\otgd_fs_int.o
 .text          0x00000000        0x0 D:\svn\stm32\stm32_high\sw\prj\RIDE\all_demo\otgd_fs_pcd.o
 .data          0x00000000        0x0 D:\svn\stm32\stm32_high\sw\prj\RIDE\all_demo\otgd_fs_pcd.o
 .bss           0x00000000        0x0 D:\svn\stm32\stm32_high\sw\prj\RIDE\all_demo\otgd_fs_pcd.o
 .text          0x00000000        0x0 D:\svn\stm32\stm32_high\sw\prj\RIDE\all_demo\usb_core.o
 .data          0x00000000        0x0 D:\svn\stm32\stm32_high\sw\prj\RIDE\all_demo\usb_core.o
 .text          0x00000000        0x0 D:\svn\stm32\stm32_high\sw\prj\RIDE\all_demo\usb_init.o
 .data          0x00000000        0x0 D:\svn\stm32\stm32_high\sw\prj\RIDE\all_demo\usb_init.o
 .bss           0x00000000        0x0 D:\svn\stm32\stm32_high\sw\prj\RIDE\all_demo\usb_init.o
 .text          0x00000000        0x0 D:\svn\stm32\stm32_high\sw\prj\RIDE\all_demo\usb_int.o
 .data          0x00000000        0x0 D:\svn\stm32\stm32_high\sw\prj\RIDE\all_demo\usb_int.o
 .bss           0x00000000        0x0 D:\svn\stm32\stm32_high\sw\prj\RIDE\all_demo\usb_int.o
 .text.CTR_HP   0x00000000       0x90 D:\svn\stm32\stm32_high\sw\prj\RIDE\all_demo\usb_int.o
 .text          0x00000000        0x0 D:\svn\stm32\stm32_high\sw\prj\RIDE\all_demo\usb_mem.o
 .data          0x00000000        0x0 D:\svn\stm32\stm32_high\sw\prj\RIDE\all_demo\usb_mem.o
 .bss           0x00000000        0x0 D:\svn\stm32\stm32_high\sw\prj\RIDE\all_demo\usb_mem.o
 .text          0x00000000        0x0 D:\svn\stm32\stm32_high\sw\prj\RIDE\all_demo\usb_regs.o
 .data          0x00000000        0x0 D:\svn\stm32\stm32_high\sw\prj\RIDE\all_demo\usb_regs.o
 .bss           0x00000000        0x0 D:\svn\stm32\stm32_high\sw\prj\RIDE\all_demo\usb_regs.o
 .text.SetCNTR  0x00000000        0xc D:\svn\stm32\stm32_high\sw\prj\RIDE\all_demo\usb_regs.o
 .text.GetCNTR  0x00000000        0xc D:\svn\stm32\stm32_high\sw\prj\RIDE\all_demo\usb_regs.o
 .text.SetISTR  0x00000000        0xc D:\svn\stm32\stm32_high\sw\prj\RIDE\all_demo\usb_regs.o
 .text.GetISTR  0x00000000        0xc D:\svn\stm32\stm32_high\sw\prj\RIDE\all_demo\usb_regs.o
 .text.GetFNR   0x00000000        0xc D:\svn\stm32\stm32_high\sw\prj\RIDE\all_demo\usb_regs.o
 .text.SetDADDR
                0x00000000        0xc D:\svn\stm32\stm32_high\sw\prj\RIDE\all_demo\usb_regs.o
 .text.GetDADDR
                0x00000000        0xc D:\svn\stm32\stm32_high\sw\prj\RIDE\all_demo\usb_regs.o
 .text.GetBTABLE
                0x00000000        0xc D:\svn\stm32\stm32_high\sw\prj\RIDE\all_demo\usb_regs.o
 .text.SetENDPOINT
                0x00000000       0x10 D:\svn\stm32\stm32_high\sw\prj\RIDE\all_demo\usb_regs.o
 .text.GetENDPOINT
                0x00000000       0x14 D:\svn\stm32\stm32_high\sw\prj\RIDE\all_demo\usb_regs.o
 .text.GetEPType
                0x00000000       0x14 D:\svn\stm32\stm32_high\sw\prj\RIDE\all_demo\usb_regs.o
 .text.SetDouBleBuffEPStall
                0x00000000       0x3c D:\svn\stm32\stm32_high\sw\prj\RIDE\all_demo\usb_regs.o
 .text.GetEPTxStatus
                0x00000000       0x14 D:\svn\stm32\stm32_high\sw\prj\RIDE\all_demo\usb_regs.o
 .text.GetEPRxStatus
                0x00000000       0x14 D:\svn\stm32\stm32_high\sw\prj\RIDE\all_demo\usb_regs.o
 .text.SetEP_KIND
                0x00000000       0x24 D:\svn\stm32\stm32_high\sw\prj\RIDE\all_demo\usb_regs.o
 .text.ClearEP_KIND
                0x00000000       0x24 D:\svn\stm32\stm32_high\sw\prj\RIDE\all_demo\usb_regs.o
 .text.Set_Status_Out
                0x00000000       0x24 D:\svn\stm32\stm32_high\sw\prj\RIDE\all_demo\usb_regs.o
 .text.SetEPDoubleBuff
                0x00000000       0x24 D:\svn\stm32\stm32_high\sw\prj\RIDE\all_demo\usb_regs.o
 .text.ClearEPDoubleBuff
                0x00000000       0x24 D:\svn\stm32\stm32_high\sw\prj\RIDE\all_demo\usb_regs.o
 .text.GetTxStallStatus
                0x00000000       0x1c D:\svn\stm32\stm32_high\sw\prj\RIDE\all_demo\usb_regs.o
 .text.GetRxStallStatus
                0x00000000       0x20 D:\svn\stm32\stm32_high\sw\prj\RIDE\all_demo\usb_regs.o
 .text.ClearEP_CTR_RX
                0x00000000       0x1c D:\svn\stm32\stm32_high\sw\prj\RIDE\all_demo\usb_regs.o
 .text.ClearEP_CTR_TX
                0x00000000       0x1c D:\svn\stm32\stm32_high\sw\prj\RIDE\all_demo\usb_regs.o
 .text.ToggleDTOG_RX
                0x00000000       0x24 D:\svn\stm32\stm32_high\sw\prj\RIDE\all_demo\usb_regs.o
 .text.ToggleDTOG_TX
                0x00000000       0x24 D:\svn\stm32\stm32_high\sw\prj\RIDE\all_demo\usb_regs.o
 .text.SetEPAddress
                0x00000000       0x28 D:\svn\stm32\stm32_high\sw\prj\RIDE\all_demo\usb_regs.o
 .text.GetEPAddress
                0x00000000       0x14 D:\svn\stm32\stm32_high\sw\prj\RIDE\all_demo\usb_regs.o
 .text.SetEPCountRxReg
                0x00000000       0x34 D:\svn\stm32\stm32_high\sw\prj\RIDE\all_demo\usb_regs.o
 .text.GetEPTxCount
                0x00000000       0x28 D:\svn\stm32\stm32_high\sw\prj\RIDE\all_demo\usb_regs.o
 .text.GetEPRxCount
                0x00000000       0x28 D:\svn\stm32\stm32_high\sw\prj\RIDE\all_demo\usb_regs.o
 .text.SetEPDblBuffAddr
                0x00000000       0x48 D:\svn\stm32\stm32_high\sw\prj\RIDE\all_demo\usb_regs.o
 .text.SetEPDblBuf0Addr
                0x00000000       0x28 D:\svn\stm32\stm32_high\sw\prj\RIDE\all_demo\usb_regs.o
 .text.SetEPDblBuf1Addr
                0x00000000       0x28 D:\svn\stm32\stm32_high\sw\prj\RIDE\all_demo\usb_regs.o
 .text.GetEPDblBuf0Addr
                0x00000000       0x20 D:\svn\stm32\stm32_high\sw\prj\RIDE\all_demo\usb_regs.o
 .text.GetEPDblBuf1Addr
                0x00000000       0x20 D:\svn\stm32\stm32_high\sw\prj\RIDE\all_demo\usb_regs.o
 .text.SetEPDblBuffCount
                0x00000000       0xdc D:\svn\stm32\stm32_high\sw\prj\RIDE\all_demo\usb_regs.o
 .text.SetEPDblBuf0Count
                0x00000000       0x6c D:\svn\stm32\stm32_high\sw\prj\RIDE\all_demo\usb_regs.o
 .text.SetEPDblBuf1Count
                0x00000000       0x6c D:\svn\stm32\stm32_high\sw\prj\RIDE\all_demo\usb_regs.o
 .text.GetEPDblBuf0Count
                0x00000000       0x28 D:\svn\stm32\stm32_high\sw\prj\RIDE\all_demo\usb_regs.o
 .text.GetEPDblBuf1Count
                0x00000000       0x28 D:\svn\stm32\stm32_high\sw\prj\RIDE\all_demo\usb_regs.o
 .text.GetEPDblBufDir
                0x00000000       0x54 D:\svn\stm32\stm32_high\sw\prj\RIDE\all_demo\usb_regs.o
 .text.FreeUserBuffer
                0x00000000       0x4c D:\svn\stm32\stm32_high\sw\prj\RIDE\all_demo\usb_regs.o
 .text.ToWord   0x00000000        0x8 D:\svn\stm32\stm32_high\sw\prj\RIDE\all_demo\usb_regs.o
 .text          0x00000000        0x0 D:\svn\stm32\stm32_high\sw\prj\RIDE\all_demo\stm32f10x_wwdg.o
 .data          0x00000000        0x0 D:\svn\stm32\stm32_high\sw\prj\RIDE\all_demo\stm32f10x_wwdg.o
 .bss           0x00000000        0x0 D:\svn\stm32\stm32_high\sw\prj\RIDE\all_demo\stm32f10x_wwdg.o
 .text.WWDG_DeInit
                0x00000000       0x1c D:\svn\stm32\stm32_high\sw\prj\RIDE\all_demo\stm32f10x_wwdg.o
 .text.WWDG_SetPrescaler
                0x00000000       0x14 D:\svn\stm32\stm32_high\sw\prj\RIDE\all_demo\stm32f10x_wwdg.o
 .text.WWDG_SetWindowValue
                0x00000000       0x2c D:\svn\stm32\stm32_high\sw\prj\RIDE\all_demo\stm32f10x_wwdg.o
 .text.WWDG_EnableIT
                0x00000000       0x10 D:\svn\stm32\stm32_high\sw\prj\RIDE\all_demo\stm32f10x_wwdg.o
 .text.WWDG_SetCounter
                0x00000000       0x10 D:\svn\stm32\stm32_high\sw\prj\RIDE\all_demo\stm32f10x_wwdg.o
 .text.WWDG_Enable
                0x00000000       0x10 D:\svn\stm32\stm32_high\sw\prj\RIDE\all_demo\stm32f10x_wwdg.o
 .text.WWDG_GetFlagStatus
                0x00000000        0xc D:\svn\stm32\stm32_high\sw\prj\RIDE\all_demo\stm32f10x_wwdg.o
 .text.WWDG_ClearFlag
                0x00000000       0x10 D:\svn\stm32\stm32_high\sw\prj\RIDE\all_demo\stm32f10x_wwdg.o
 .text          0x00000000        0x0 D:\svn\stm32\stm32_high\sw\prj\RIDE\all_demo\misc.o
 .data          0x00000000        0x0 D:\svn\stm32\stm32_high\sw\prj\RIDE\all_demo\misc.o
 .bss           0x00000000        0x0 D:\svn\stm32\stm32_high\sw\prj\RIDE\all_demo\misc.o
 .text.NVIC_SystemLPConfig
                0x00000000       0x1c D:\svn\stm32\stm32_high\sw\prj\RIDE\all_demo\misc.o
 .text          0x00000000        0x0 D:\svn\stm32\stm32_high\sw\prj\RIDE\all_demo\stm32f10x_adc.o
 .data          0x00000000        0x0 D:\svn\stm32\stm32_high\sw\prj\RIDE\all_demo\stm32f10x_adc.o
 .bss           0x00000000        0x0 D:\svn\stm32\stm32_high\sw\prj\RIDE\all_demo\stm32f10x_adc.o
 .text.ADC_DeInit
                0x00000000       0x70 D:\svn\stm32\stm32_high\sw\prj\RIDE\all_demo\stm32f10x_adc.o
 .text.ADC_StructInit
                0x00000000       0x18 D:\svn\stm32\stm32_high\sw\prj\RIDE\all_demo\stm32f10x_adc.o
 .text.ADC_DMACmd
                0x00000000       0x18 D:\svn\stm32\stm32_high\sw\prj\RIDE\all_demo\stm32f10x_adc.o
 .text.ADC_ITConfig
                0x00000000       0x18 D:\svn\stm32\stm32_high\sw\prj\RIDE\all_demo\stm32f10x_adc.o
 .text.ADC_ResetCalibration
                0x00000000        0xc D:\svn\stm32\stm32_high\sw\prj\RIDE\all_demo\stm32f10x_adc.o
 .text.ADC_GetResetCalibrationStatus
                0x00000000        0x8 D:\svn\stm32\stm32_high\sw\prj\RIDE\all_demo\stm32f10x_adc.o
 .text.ADC_StartCalibration
                0x00000000        0xc D:\svn\stm32\stm32_high\sw\prj\RIDE\all_demo\stm32f10x_adc.o
 .text.ADC_GetCalibrationStatus
                0x00000000        0x8 D:\svn\stm32\stm32_high\sw\prj\RIDE\all_demo\stm32f10x_adc.o
 .text.ADC_GetSoftwareStartConvStatus
                0x00000000        0x8 D:\svn\stm32\stm32_high\sw\prj\RIDE\all_demo\stm32f10x_adc.o
 .text.ADC_DiscModeChannelCountConfig
                0x00000000       0x14 D:\svn\stm32\stm32_high\sw\prj\RIDE\all_demo\stm32f10x_adc.o
 .text.ADC_DiscModeCmd
                0x00000000       0x18 D:\svn\stm32\stm32_high\sw\prj\RIDE\all_demo\stm32f10x_adc.o
 .text.ADC_ExternalTrigConvCmd
                0x00000000       0x18 D:\svn\stm32\stm32_high\sw\prj\RIDE\all_demo\stm32f10x_adc.o
 .text.ADC_GetDualModeConversionValue
                0x00000000        0xc D:\svn\stm32\stm32_high\sw\prj\RIDE\all_demo\stm32f10x_adc.o
 .text.ADC_AutoInjectedConvCmd
                0x00000000       0x18 D:\svn\stm32\stm32_high\sw\prj\RIDE\all_demo\stm32f10x_adc.o
 .text.ADC_InjectedDiscModeCmd
                0x00000000       0x18 D:\svn\stm32\stm32_high\sw\prj\RIDE\all_demo\stm32f10x_adc.o
 .text.ADC_ExternalTrigInjectedConvConfig
                0x00000000       0x10 D:\svn\stm32\stm32_high\sw\prj\RIDE\all_demo\stm32f10x_adc.o
 .text.ADC_ExternalTrigInjectedConvCmd
                0x00000000       0x18 D:\svn\stm32\stm32_high\sw\prj\RIDE\all_demo\stm32f10x_adc.o
 .text.ADC_SoftwareStartInjectedConvCmd
                0x00000000       0x18 D:\svn\stm32\stm32_high\sw\prj\RIDE\all_demo\stm32f10x_adc.o
 .text.ADC_GetSoftwareStartInjectedConvCmdStatus
                0x00000000        0x8 D:\svn\stm32\stm32_high\sw\prj\RIDE\all_demo\stm32f10x_adc.o
 .text.ADC_InjectedChannelConfig
                0x00000000       0x70 D:\svn\stm32\stm32_high\sw\prj\RIDE\all_demo\stm32f10x_adc.o
 .text.ADC_InjectedSequencerLengthConfig
                0x00000000       0x14 D:\svn\stm32\stm32_high\sw\prj\RIDE\all_demo\stm32f10x_adc.o
 .text.ADC_SetInjectedOffset
                0x00000000       0x18 D:\svn\stm32\stm32_high\sw\prj\RIDE\all_demo\stm32f10x_adc.o
 .text.ADC_GetInjectedConversionValue
                0x00000000       0x20 D:\svn\stm32\stm32_high\sw\prj\RIDE\all_demo\stm32f10x_adc.o
 .text.ADC_AnalogWatchdogCmd
                0x00000000       0x14 D:\svn\stm32\stm32_high\sw\prj\RIDE\all_demo\stm32f10x_adc.o
 .text.ADC_AnalogWatchdogThresholdsConfig
                0x00000000        0x8 D:\svn\stm32\stm32_high\sw\prj\RIDE\all_demo\stm32f10x_adc.o
 .text.ADC_AnalogWatchdogSingleChannelConfig
                0x00000000       0x10 D:\svn\stm32\stm32_high\sw\prj\RIDE\all_demo\stm32f10x_adc.o
 .text.ADC_TempSensorVrefintCmd
                0x00000000       0x20 D:\svn\stm32\stm32_high\sw\prj\RIDE\all_demo\stm32f10x_adc.o
 .text.ADC_ClearFlag
                0x00000000        0x8 D:\svn\stm32\stm32_high\sw\prj\RIDE\all_demo\stm32f10x_adc.o
 .text.ADC_GetITStatus
                0x00000000       0x1c D:\svn\stm32\stm32_high\sw\prj\RIDE\all_demo\stm32f10x_adc.o
 .text.ADC_ClearITPendingBit
                0x00000000        0x8 D:\svn\stm32\stm32_high\sw\prj\RIDE\all_demo\stm32f10x_adc.o
 .text          0x00000000        0x0 D:\svn\stm32\stm32_high\sw\prj\RIDE\all_demo\stm32f10x_bkp.o
 .data          0x00000000        0x0 D:\svn\stm32\stm32_high\sw\prj\RIDE\all_demo\stm32f10x_bkp.o
 .bss           0x00000000        0x0 D:\svn\stm32\stm32_high\sw\prj\RIDE\all_demo\stm32f10x_bkp.o
 .text.BKP_TamperPinLevelConfig
                0x00000000        0xc D:\svn\stm32\stm32_high\sw\prj\RIDE\all_demo\stm32f10x_bkp.o
 .text.BKP_TamperPinCmd
                0x00000000        0xc D:\svn\stm32\stm32_high\sw\prj\RIDE\all_demo\stm32f10x_bkp.o
 .text.BKP_ITConfig
                0x00000000        0xc D:\svn\stm32\stm32_high\sw\prj\RIDE\all_demo\stm32f10x_bkp.o
 .text.BKP_RTCOutputConfig
                0x00000000       0x1c D:\svn\stm32\stm32_high\sw\prj\RIDE\all_demo\stm32f10x_bkp.o
 .text.BKP_SetRTCCalibrationValue
                0x00000000       0x1c D:\svn\stm32\stm32_high\sw\prj\RIDE\all_demo\stm32f10x_bkp.o
 .text.BKP_GetFlagStatus
                0x00000000        0xc D:\svn\stm32\stm32_high\sw\prj\RIDE\all_demo\stm32f10x_bkp.o
 .text.BKP_ClearFlag
                0x00000000       0x14 D:\svn\stm32\stm32_high\sw\prj\RIDE\all_demo\stm32f10x_bkp.o
 .text.BKP_GetITStatus
                0x00000000        0xc D:\svn\stm32\stm32_high\sw\prj\RIDE\all_demo\stm32f10x_bkp.o
 .text.BKP_ClearITPendingBit
                0x00000000       0x14 D:\svn\stm32\stm32_high\sw\prj\RIDE\all_demo\stm32f10x_bkp.o
 .text          0x00000000        0x0 D:\svn\stm32\stm32_high\sw\prj\RIDE\all_demo\stm32f10x_can.o
 .data          0x00000000        0x0 D:\svn\stm32\stm32_high\sw\prj\RIDE\all_demo\stm32f10x_can.o
 .bss           0x00000000        0x0 D:\svn\stm32\stm32_high\sw\prj\RIDE\all_demo\stm32f10x_can.o
 .text.CheckITStatus
                0x00000000        0xc D:\svn\stm32\stm32_high\sw\prj\RIDE\all_demo\stm32f10x_can.o
 .text.CAN_SlaveStartBank
                0x00000000       0x3c D:\svn\stm32\stm32_high\sw\prj\RIDE\all_demo\stm32f10x_can.o
 .text.CAN_DBGFreeze
                0x00000000       0x18 D:\svn\stm32\stm32_high\sw\prj\RIDE\all_demo\stm32f10x_can.o
 .text.CAN_TTComModeCmd
                0x00000000       0x60 D:\svn\stm32\stm32_high\sw\prj\RIDE\all_demo\stm32f10x_can.o
 .text.CAN_CancelTransmit
                0x00000000       0x2c D:\svn\stm32\stm32_high\sw\prj\RIDE\all_demo\stm32f10x_can.o
 .text.CAN_FIFORelease
                0x00000000       0x18 D:\svn\stm32\stm32_high\sw\prj\RIDE\all_demo\stm32f10x_can.o
 .text.CAN_OperatingModeRequest
                0x00000000       0xb0 D:\svn\stm32\stm32_high\sw\prj\RIDE\all_demo\stm32f10x_can.o
 .text.CAN_Sleep
                0x00000000       0x1c D:\svn\stm32\stm32_high\sw\prj\RIDE\all_demo\stm32f10x_can.o
 .text.CAN_WakeUp
                0x00000000       0x30 D:\svn\stm32\stm32_high\sw\prj\RIDE\all_demo\stm32f10x_can.o
 .text.CAN_GetLastErrorCode
                0x00000000        0x8 D:\svn\stm32\stm32_high\sw\prj\RIDE\all_demo\stm32f10x_can.o
 .text.CAN_GetReceiveErrorCounter
                0x00000000        0x8 D:\svn\stm32\stm32_high\sw\prj\RIDE\all_demo\stm32f10x_can.o
 .text.CAN_GetLSBTransmitErrorCounter
                0x00000000        0x8 D:\svn\stm32\stm32_high\sw\prj\RIDE\all_demo\stm32f10x_can.o
 .text.CAN_GetFlagStatus
                0x00000000       0x7c D:\svn\stm32\stm32_high\sw\prj\RIDE\all_demo\stm32f10x_can.o
 .text.CAN_ClearFlag
                0x00000000       0x3c D:\svn\stm32\stm32_high\sw\prj\RIDE\all_demo\stm32f10x_can.o
 .text.CAN_GetITStatus
                0x00000000      0x114 D:\svn\stm32\stm32_high\sw\prj\RIDE\all_demo\stm32f10x_can.o
 .text          0x00000000        0x0 D:\svn\stm32\stm32_high\sw\prj\RIDE\all_demo\stm32f10x_cec.o
 .data          0x00000000        0x0 D:\svn\stm32\stm32_high\sw\prj\RIDE\all_demo\stm32f10x_cec.o
 .bss           0x00000000        0x0 D:\svn\stm32\stm32_high\sw\prj\RIDE\all_demo\stm32f10x_cec.o
 .text.CEC_DeInit
                0x00000000       0x1c D:\svn\stm32\stm32_high\sw\prj\RIDE\all_demo\stm32f10x_cec.o
 .text.CEC_Init
                0x00000000       0x24 D:\svn\stm32\stm32_high\sw\prj\RIDE\all_demo\stm32f10x_cec.o
 .text.CEC_Cmd  0x00000000       0x1c D:\svn\stm32\stm32_high\sw\prj\RIDE\all_demo\stm32f10x_cec.o
 .text.CEC_ITConfig
                0x00000000        0xc D:\svn\stm32\stm32_high\sw\prj\RIDE\all_demo\stm32f10x_cec.o
 .text.CEC_OwnAddressConfig
                0x00000000        0xc D:\svn\stm32\stm32_high\sw\prj\RIDE\all_demo\stm32f10x_cec.o
 .text.CEC_SetPrescaler
                0x00000000        0xc D:\svn\stm32\stm32_high\sw\prj\RIDE\all_demo\stm32f10x_cec.o
 .text.CEC_SendDataByte
                0x00000000        0xc D:\svn\stm32\stm32_high\sw\prj\RIDE\all_demo\stm32f10x_cec.o
 .text.CEC_ReceiveDataByte
                0x00000000        0xc D:\svn\stm32\stm32_high\sw\prj\RIDE\all_demo\stm32f10x_cec.o
 .text.CEC_StartOfMessage
                0x00000000       0x10 D:\svn\stm32\stm32_high\sw\prj\RIDE\all_demo\stm32f10x_cec.o
 .text.CEC_EndOfMessageCmd
                0x00000000        0xc D:\svn\stm32\stm32_high\sw\prj\RIDE\all_demo\stm32f10x_cec.o
 .text.CEC_GetFlagStatus
                0x00000000       0x24 D:\svn\stm32\stm32_high\sw\prj\RIDE\all_demo\stm32f10x_cec.o
 .text.CEC_ClearFlag
                0x00000000       0x24 D:\svn\stm32\stm32_high\sw\prj\RIDE\all_demo\stm32f10x_cec.o
 .text.CEC_GetITStatus
                0x00000000       0x18 D:\svn\stm32\stm32_high\sw\prj\RIDE\all_demo\stm32f10x_cec.o
 .text.CEC_ClearITPendingBit
                0x00000000       0x24 D:\svn\stm32\stm32_high\sw\prj\RIDE\all_demo\stm32f10x_cec.o
 .text          0x00000000        0x0 D:\svn\stm32\stm32_high\sw\prj\RIDE\all_demo\stm32f10x_crc.o
 .data          0x00000000        0x0 D:\svn\stm32\stm32_high\sw\prj\RIDE\all_demo\stm32f10x_crc.o
 .bss           0x00000000        0x0 D:\svn\stm32\stm32_high\sw\prj\RIDE\all_demo\stm32f10x_crc.o
 .text.CRC_ResetDR
                0x00000000       0x10 D:\svn\stm32\stm32_high\sw\prj\RIDE\all_demo\stm32f10x_crc.o
 .text.CRC_CalcCRC
                0x00000000        0xc D:\svn\stm32\stm32_high\sw\prj\RIDE\all_demo\stm32f10x_crc.o
 .text.CRC_CalcBlockCRC
                0x00000000       0x28 D:\svn\stm32\stm32_high\sw\prj\RIDE\all_demo\stm32f10x_crc.o
 .text.CRC_GetCRC
                0x00000000        0xc D:\svn\stm32\stm32_high\sw\prj\RIDE\all_demo\stm32f10x_crc.o
 .text.CRC_SetIDRegister
                0x00000000        0xc D:\svn\stm32\stm32_high\sw\prj\RIDE\all_demo\stm32f10x_crc.o
 .text.CRC_GetIDRegister
                0x00000000        0xc D:\svn\stm32\stm32_high\sw\prj\RIDE\all_demo\stm32f10x_crc.o
 .text          0x00000000        0x0 D:\svn\stm32\stm32_high\sw\prj\RIDE\all_demo\stm32f10x_dac.o
 .data          0x00000000        0x0 D:\svn\stm32\stm32_high\sw\prj\RIDE\all_demo\stm32f10x_dac.o
 .bss           0x00000000        0x0 D:\svn\stm32\stm32_high\sw\prj\RIDE\all_demo\stm32f10x_dac.o
 .text.DAC_DeInit
                0x00000000       0x1c D:\svn\stm32\stm32_high\sw\prj\RIDE\all_demo\stm32f10x_dac.o
 .text.DAC_Init
                0x00000000       0x34 D:\svn\stm32\stm32_high\sw\prj\RIDE\all_demo\stm32f10x_dac.o
 .text.DAC_StructInit
                0x00000000       0x10 D:\svn\stm32\stm32_high\sw\prj\RIDE\all_demo\stm32f10x_dac.o
 .text.DAC_Cmd  0x00000000       0x2c D:\svn\stm32\stm32_high\sw\prj\RIDE\all_demo\stm32f10x_dac.o
 .text.DAC_DMACmd
                0x00000000       0x2c D:\svn\stm32\stm32_high\sw\prj\RIDE\all_demo\stm32f10x_dac.o
 .text.DAC_SoftwareTriggerCmd
                0x00000000       0x34 D:\svn\stm32\stm32_high\sw\prj\RIDE\all_demo\stm32f10x_dac.o
 .text.DAC_DualSoftwareTriggerCmd
                0x00000000       0x20 D:\svn\stm32\stm32_high\sw\prj\RIDE\all_demo\stm32f10x_dac.o
 .text.DAC_WaveGenerationCmd
                0x00000000       0x24 D:\svn\stm32\stm32_high\sw\prj\RIDE\all_demo\stm32f10x_dac.o
 .text.DAC_SetChannel1Data
                0x00000000       0x24 D:\svn\stm32\stm32_high\sw\prj\RIDE\all_demo\stm32f10x_dac.o
 .text.DAC_SetChannel2Data
                0x00000000       0x24 D:\svn\stm32\stm32_high\sw\prj\RIDE\all_demo\stm32f10x_dac.o
 .text.DAC_SetDualChannelData
                0x00000000       0x18 D:\svn\stm32\stm32_high\sw\prj\RIDE\all_demo\stm32f10x_dac.o
 .text.DAC_GetDataOutputValue
                0x00000000       0x28 D:\svn\stm32\stm32_high\sw\prj\RIDE\all_demo\stm32f10x_dac.o
 .text          0x00000000        0x0 D:\svn\stm32\stm32_high\sw\prj\RIDE\all_demo\stm32f10x_dbgmcu.o
 .data          0x00000000        0x0 D:\svn\stm32\stm32_high\sw\prj\RIDE\all_demo\stm32f10x_dbgmcu.o
 .bss           0x00000000        0x0 D:\svn\stm32\stm32_high\sw\prj\RIDE\all_demo\stm32f10x_dbgmcu.o
 .text.DBGMCU_GetREVID
                0x00000000       0x10 D:\svn\stm32\stm32_high\sw\prj\RIDE\all_demo\stm32f10x_dbgmcu.o
 .text.DBGMCU_GetDEVID
                0x00000000       0x14 D:\svn\stm32\stm32_high\sw\prj\RIDE\all_demo\stm32f10x_dbgmcu.o
 .text.DBGMCU_Config
                0x00000000       0x1c D:\svn\stm32\stm32_high\sw\prj\RIDE\all_demo\stm32f10x_dbgmcu.o
 .text          0x00000000        0x0 D:\svn\stm32\stm32_high\sw\prj\RIDE\all_demo\stm32f10x_dma.o
 .data          0x00000000        0x0 D:\svn\stm32\stm32_high\sw\prj\RIDE\all_demo\stm32f10x_dma.o
 .bss           0x00000000        0x0 D:\svn\stm32\stm32_high\sw\prj\RIDE\all_demo\stm32f10x_dma.o
 .text.DMA_DeInit
                0x00000000      0x138 D:\svn\stm32\stm32_high\sw\prj\RIDE\all_demo\stm32f10x_dma.o
 .text.DMA_Init
                0x00000000       0x40 D:\svn\stm32\stm32_high\sw\prj\RIDE\all_demo\stm32f10x_dma.o
 .text.DMA_StructInit
                0x00000000       0x1c D:\svn\stm32\stm32_high\sw\prj\RIDE\all_demo\stm32f10x_dma.o
 .text.DMA_Cmd  0x00000000       0x1c D:\svn\stm32\stm32_high\sw\prj\RIDE\all_demo\stm32f10x_dma.o
 .text.DMA_ITConfig
                0x00000000       0x14 D:\svn\stm32\stm32_high\sw\prj\RIDE\all_demo\stm32f10x_dma.o
 .text.DMA_SetCurrDataCounter
                0x00000000        0x4 D:\svn\stm32\stm32_high\sw\prj\RIDE\all_demo\stm32f10x_dma.o
 .text.DMA_GetCurrDataCounter
                0x00000000        0x8 D:\svn\stm32\stm32_high\sw\prj\RIDE\all_demo\stm32f10x_dma.o
 .text.DMA_GetFlagStatus
                0x00000000       0x20 D:\svn\stm32\stm32_high\sw\prj\RIDE\all_demo\stm32f10x_dma.o
 .text.DMA_ClearFlag
                0x00000000       0x18 D:\svn\stm32\stm32_high\sw\prj\RIDE\all_demo\stm32f10x_dma.o
 .text.DMA_GetITStatus
                0x00000000       0x20 D:\svn\stm32\stm32_high\sw\prj\RIDE\all_demo\stm32f10x_dma.o
 .text.DMA_ClearITPendingBit
                0x00000000       0x18 D:\svn\stm32\stm32_high\sw\prj\RIDE\all_demo\stm32f10x_dma.o
 .text          0x00000000        0x0 D:\svn\stm32\stm32_high\sw\prj\RIDE\all_demo\stm32f10x_exti.o
 .data          0x00000000        0x0 D:\svn\stm32\stm32_high\sw\prj\RIDE\all_demo\stm32f10x_exti.o
 .bss           0x00000000        0x0 D:\svn\stm32\stm32_high\sw\prj\RIDE\all_demo\stm32f10x_exti.o
 .text.EXTI_DeInit
                0x00000000       0x1c D:\svn\stm32\stm32_high\sw\prj\RIDE\all_demo\stm32f10x_exti.o
 .text.EXTI_StructInit
                0x00000000       0x14 D:\svn\stm32\stm32_high\sw\prj\RIDE\all_demo\stm32f10x_exti.o
 .text.EXTI_GenerateSWInterrupt
                0x00000000       0x10 D:\svn\stm32\stm32_high\sw\prj\RIDE\all_demo\stm32f10x_exti.o
 .text.EXTI_GetFlagStatus
                0x00000000       0x14 D:\svn\stm32\stm32_high\sw\prj\RIDE\all_demo\stm32f10x_exti.o
 .text.EXTI_ClearFlag
                0x00000000        0xc D:\svn\stm32\stm32_high\sw\prj\RIDE\all_demo\stm32f10x_exti.o
 .text          0x00000000        0x0 D:\svn\stm32\stm32_high\sw\prj\RIDE\all_demo\stm32f10x_flash.o
 .data          0x00000000        0x0 D:\svn\stm32\stm32_high\sw\prj\RIDE\all_demo\stm32f10x_flash.o
 .bss           0x00000000        0x0 D:\svn\stm32\stm32_high\sw\prj\RIDE\all_demo\stm32f10x_flash.o
 .text.FLASH_HalfCycleAccessCmd
                0x00000000       0x18 D:\svn\stm32\stm32_high\sw\prj\RIDE\all_demo\stm32f10x_flash.o
 .text.FLASH_Unlock
                0x00000000       0x18 D:\svn\stm32\stm32_high\sw\prj\RIDE\all_demo\stm32f10x_flash.o
 .text.FLASH_UnlockBank1
                0x00000000       0x18 D:\svn\stm32\stm32_high\sw\prj\RIDE\all_demo\stm32f10x_flash.o
 .text.FLASH_Lock
                0x00000000       0x10 D:\svn\stm32\stm32_high\sw\prj\RIDE\all_demo\stm32f10x_flash.o
 .text.FLASH_LockBank1
                0x00000000       0x10 D:\svn\stm32\stm32_high\sw\prj\RIDE\all_demo\stm32f10x_flash.o
 .text.FLASH_GetUserOptionByte
                0x00000000       0x10 D:\svn\stm32\stm32_high\sw\prj\RIDE\all_demo\stm32f10x_flash.o
 .text.FLASH_GetWriteProtectionOptionByte
                0x00000000        0xc D:\svn\stm32\stm32_high\sw\prj\RIDE\all_demo\stm32f10x_flash.o
 .text.FLASH_GetReadOutProtectionStatus
                0x00000000       0x10 D:\svn\stm32\stm32_high\sw\prj\RIDE\all_demo\stm32f10x_flash.o
 .text.FLASH_GetPrefetchBufferStatus
                0x00000000       0x10 D:\svn\stm32\stm32_high\sw\prj\RIDE\all_demo\stm32f10x_flash.o
 .text.FLASH_ITConfig
                0x00000000       0x1c D:\svn\stm32\stm32_high\sw\prj\RIDE\all_demo\stm32f10x_flash.o
 .text.FLASH_GetFlagStatus
                0x00000000       0x20 D:\svn\stm32\stm32_high\sw\prj\RIDE\all_demo\stm32f10x_flash.o
 .text.FLASH_ClearFlag
                0x00000000        0xc D:\svn\stm32\stm32_high\sw\prj\RIDE\all_demo\stm32f10x_flash.o
 .text.FLASH_GetStatus
                0x00000000       0x38 D:\svn\stm32\stm32_high\sw\prj\RIDE\all_demo\stm32f10x_flash.o
 .text.FLASH_GetBank1Status
                0x00000000       0x38 D:\svn\stm32\stm32_high\sw\prj\RIDE\all_demo\stm32f10x_flash.o
 .text.FLASH_WaitForLastOperation
                0x00000000       0x34 D:\svn\stm32\stm32_high\sw\prj\RIDE\all_demo\stm32f10x_flash.o
 .text.FLASH_UserOptionByteConfig
                0x00000000       0x60 D:\svn\stm32\stm32_high\sw\prj\RIDE\all_demo\stm32f10x_flash.o
 .text.FLASH_ReadOutProtection
                0x00000000       0xa0 D:\svn\stm32\stm32_high\sw\prj\RIDE\all_demo\stm32f10x_flash.o
 .text.FLASH_EnableWriteProtection
                0x00000000       0xb0 D:\svn\stm32\stm32_high\sw\prj\RIDE\all_demo\stm32f10x_flash.o
 .text.FLASH_ProgramOptionByteData
                0x00000000       0x4c D:\svn\stm32\stm32_high\sw\prj\RIDE\all_demo\stm32f10x_flash.o
 .text.FLASH_ProgramHalfWord
                0x00000000       0x38 D:\svn\stm32\stm32_high\sw\prj\RIDE\all_demo\stm32f10x_flash.o
 .text.FLASH_ProgramWord
                0x00000000       0x70 D:\svn\stm32\stm32_high\sw\prj\RIDE\all_demo\stm32f10x_flash.o
 .text.FLASH_EraseOptionBytes
                0x00000000       0x98 D:\svn\stm32\stm32_high\sw\prj\RIDE\all_demo\stm32f10x_flash.o
 .text.FLASH_EraseAllPages
                0x00000000       0x3c D:\svn\stm32\stm32_high\sw\prj\RIDE\all_demo\stm32f10x_flash.o
 .text.FLASH_ErasePage
                0x00000000       0x40 D:\svn\stm32\stm32_high\sw\prj\RIDE\all_demo\stm32f10x_flash.o
 .text.FLASH_WaitForLastBank1Operation
                0x00000000       0x34 D:\svn\stm32\stm32_high\sw\prj\RIDE\all_demo\stm32f10x_flash.o
 .text.FLASH_EraseAllBank1Pages
                0x00000000       0x3c D:\svn\stm32\stm32_high\sw\prj\RIDE\all_demo\stm32f10x_flash.o
 .text          0x00000000        0x0 D:\svn\stm32\stm32_high\sw\prj\RIDE\all_demo\stm32f10x_fsmc.o
 .data          0x00000000        0x0 D:\svn\stm32\stm32_high\sw\prj\RIDE\all_demo\stm32f10x_fsmc.o
 .bss           0x00000000        0x0 D:\svn\stm32\stm32_high\sw\prj\RIDE\all_demo\stm32f10x_fsmc.o
 .text.FSMC_NORSRAMDeInit
                0x00000000       0x38 D:\svn\stm32\stm32_high\sw\prj\RIDE\all_demo\stm32f10x_fsmc.o
 .text.FSMC_NANDDeInit
                0x00000000       0x28 D:\svn\stm32\stm32_high\sw\prj\RIDE\all_demo\stm32f10x_fsmc.o
 .text.FSMC_PCCARDDeInit
                0x00000000       0x20 D:\svn\stm32\stm32_high\sw\prj\RIDE\all_demo\stm32f10x_fsmc.o
 .text.FSMC_NANDInit
                0x00000000       0x6c D:\svn\stm32\stm32_high\sw\prj\RIDE\all_demo\stm32f10x_fsmc.o
 .text.FSMC_PCCARDInit
                0x00000000       0x70 D:\svn\stm32\stm32_high\sw\prj\RIDE\all_demo\stm32f10x_fsmc.o
 .text.FSMC_NORSRAMStructInit
                0x00000000       0x70 D:\svn\stm32\stm32_high\sw\prj\RIDE\all_demo\stm32f10x_fsmc.o
 .text.FSMC_NANDStructInit
                0x00000000       0x3c D:\svn\stm32\stm32_high\sw\prj\RIDE\all_demo\stm32f10x_fsmc.o
 .text.FSMC_PCCARDStructInit
                0x00000000       0x40 D:\svn\stm32\stm32_high\sw\prj\RIDE\all_demo\stm32f10x_fsmc.o
 .text.FSMC_NANDCmd
                0x00000000       0x34 D:\svn\stm32\stm32_high\sw\prj\RIDE\all_demo\stm32f10x_fsmc.o
 .text.FSMC_PCCARDCmd
                0x00000000       0x24 D:\svn\stm32\stm32_high\sw\prj\RIDE\all_demo\stm32f10x_fsmc.o
 .text.FSMC_NANDECCCmd
                0x00000000       0x34 D:\svn\stm32\stm32_high\sw\prj\RIDE\all_demo\stm32f10x_fsmc.o
 .text.FSMC_GetECC
                0x00000000       0x18 D:\svn\stm32\stm32_high\sw\prj\RIDE\all_demo\stm32f10x_fsmc.o
 .text.FSMC_ITConfig
                0x00000000       0x54 D:\svn\stm32\stm32_high\sw\prj\RIDE\all_demo\stm32f10x_fsmc.o
 .text.FSMC_GetFlagStatus
                0x00000000       0x2c D:\svn\stm32\stm32_high\sw\prj\RIDE\all_demo\stm32f10x_fsmc.o
 .text.FSMC_ClearFlag
                0x00000000       0x30 D:\svn\stm32\stm32_high\sw\prj\RIDE\all_demo\stm32f10x_fsmc.o
 .text.FSMC_GetITStatus
                0x00000000       0x38 D:\svn\stm32\stm32_high\sw\prj\RIDE\all_demo\stm32f10x_fsmc.o
 .text.FSMC_ClearITPendingBit
                0x00000000       0x30 D:\svn\stm32\stm32_high\sw\prj\RIDE\all_demo\stm32f10x_fsmc.o
 .text          0x00000000        0x0 D:\svn\stm32\stm32_high\sw\prj\RIDE\all_demo\stm32f10x_gpio.o
 .data          0x00000000        0x0 D:\svn\stm32\stm32_high\sw\prj\RIDE\all_demo\stm32f10x_gpio.o
 .bss           0x00000000        0x0 D:\svn\stm32\stm32_high\sw\prj\RIDE\all_demo\stm32f10x_gpio.o
 .text.GPIO_DeInit
                0x00000000      0x100 D:\svn\stm32\stm32_high\sw\prj\RIDE\all_demo\stm32f10x_gpio.o
 .text.GPIO_AFIODeInit
                0x00000000       0x1c D:\svn\stm32\stm32_high\sw\prj\RIDE\all_demo\stm32f10x_gpio.o
 .text.GPIO_StructInit
                0x00000000       0x14 D:\svn\stm32\stm32_high\sw\prj\RIDE\all_demo\stm32f10x_gpio.o
 .text.GPIO_ReadInputData
                0x00000000        0x8 D:\svn\stm32\stm32_high\sw\prj\RIDE\all_demo\stm32f10x_gpio.o
 .text.GPIO_Write
                0x00000000        0x4 D:\svn\stm32\stm32_high\sw\prj\RIDE\all_demo\stm32f10x_gpio.o
 .text.GPIO_PinLockConfig
                0x00000000       0x10 D:\svn\stm32\stm32_high\sw\prj\RIDE\all_demo\stm32f10x_gpio.o
 .text.GPIO_EventOutputConfig
                0x00000000       0x20 D:\svn\stm32\stm32_high\sw\prj\RIDE\all_demo\stm32f10x_gpio.o
 .text.GPIO_EventOutputCmd
                0x00000000        0xc D:\svn\stm32\stm32_high\sw\prj\RIDE\all_demo\stm32f10x_gpio.o
 .text.GPIO_ETH_MediaInterfaceConfig
                0x00000000        0xc D:\svn\stm32\stm32_high\sw\prj\RIDE\all_demo\stm32f10x_gpio.o
 .text          0x00000000        0x0 D:\svn\stm32\stm32_high\sw\prj\RIDE\all_demo\stm32f10x_i2c.o
 .data          0x00000000        0x0 D:\svn\stm32\stm32_high\sw\prj\RIDE\all_demo\stm32f10x_i2c.o
 .bss           0x00000000        0x0 D:\svn\stm32\stm32_high\sw\prj\RIDE\all_demo\stm32f10x_i2c.o
 .text.I2C_DeInit
                0x00000000       0x40 D:\svn\stm32\stm32_high\sw\prj\RIDE\all_demo\stm32f10x_i2c.o
 .text.I2C_Init
                0x00000000      0x100 D:\svn\stm32\stm32_high\sw\prj\RIDE\all_demo\stm32f10x_i2c.o
 .text.I2C_StructInit
                0x00000000       0x20 D:\svn\stm32\stm32_high\sw\prj\RIDE\all_demo\stm32f10x_i2c.o
 .text.I2C_Cmd  0x00000000       0x20 D:\svn\stm32\stm32_high\sw\prj\RIDE\all_demo\stm32f10x_i2c.o
 .text.I2C_DMACmd
                0x00000000       0x20 D:\svn\stm32\stm32_high\sw\prj\RIDE\all_demo\stm32f10x_i2c.o
 .text.I2C_DMALastTransferCmd
                0x00000000       0x20 D:\svn\stm32\stm32_high\sw\prj\RIDE\all_demo\stm32f10x_i2c.o
 .text.I2C_GenerateSTART
                0x00000000       0x20 D:\svn\stm32\stm32_high\sw\prj\RIDE\all_demo\stm32f10x_i2c.o
 .text.I2C_GenerateSTOP
                0x00000000       0x20 D:\svn\stm32\stm32_high\sw\prj\RIDE\all_demo\stm32f10x_i2c.o
 .text.I2C_AcknowledgeConfig
                0x00000000       0x20 D:\svn\stm32\stm32_high\sw\prj\RIDE\all_demo\stm32f10x_i2c.o
 .text.I2C_OwnAddress2Config
                0x00000000       0x1c D:\svn\stm32\stm32_high\sw\prj\RIDE\all_demo\stm32f10x_i2c.o
 .text.I2C_DualAddressCmd
                0x00000000       0x20 D:\svn\stm32\stm32_high\sw\prj\RIDE\all_demo\stm32f10x_i2c.o
 .text.I2C_GeneralCallCmd
                0x00000000       0x20 D:\svn\stm32\stm32_high\sw\prj\RIDE\all_demo\stm32f10x_i2c.o
 .text.I2C_ITConfig
                0x00000000       0x18 D:\svn\stm32\stm32_high\sw\prj\RIDE\all_demo\stm32f10x_i2c.o
 .text.I2C_SendData
                0x00000000        0x4 D:\svn\stm32\stm32_high\sw\prj\RIDE\all_demo\stm32f10x_i2c.o
 .text.I2C_ReceiveData
                0x00000000        0x8 D:\svn\stm32\stm32_high\sw\prj\RIDE\all_demo\stm32f10x_i2c.o
 .text.I2C_Send7bitAddress
                0x00000000       0x10 D:\svn\stm32\stm32_high\sw\prj\RIDE\all_demo\stm32f10x_i2c.o
 .text.I2C_ReadRegister
                0x00000000       0x1c D:\svn\stm32\stm32_high\sw\prj\RIDE\all_demo\stm32f10x_i2c.o
 .text.I2C_SoftwareResetCmd
                0x00000000       0x20 D:\svn\stm32\stm32_high\sw\prj\RIDE\all_demo\stm32f10x_i2c.o
 .text.I2C_NACKPositionConfig
                0x00000000       0x24 D:\svn\stm32\stm32_high\sw\prj\RIDE\all_demo\stm32f10x_i2c.o
 .text.I2C_SMBusAlertConfig
                0x00000000       0x24 D:\svn\stm32\stm32_high\sw\prj\RIDE\all_demo\stm32f10x_i2c.o
 .text.I2C_TransmitPEC
                0x00000000       0x20 D:\svn\stm32\stm32_high\sw\prj\RIDE\all_demo\stm32f10x_i2c.o
 .text.I2C_PECPositionConfig
                0x00000000       0x24 D:\svn\stm32\stm32_high\sw\prj\RIDE\all_demo\stm32f10x_i2c.o
 .text.I2C_CalculatePEC
                0x00000000       0x20 D:\svn\stm32\stm32_high\sw\prj\RIDE\all_demo\stm32f10x_i2c.o
 .text.I2C_GetPEC
                0x00000000        0x8 D:\svn\stm32\stm32_high\sw\prj\RIDE\all_demo\stm32f10x_i2c.o
 .text.I2C_ARPCmd
                0x00000000       0x20 D:\svn\stm32\stm32_high\sw\prj\RIDE\all_demo\stm32f10x_i2c.o
 .text.I2C_StretchClockCmd
                0x00000000       0x20 D:\svn\stm32\stm32_high\sw\prj\RIDE\all_demo\stm32f10x_i2c.o
 .text.I2C_FastModeDutyCycleConfig
                0x00000000       0x24 D:\svn\stm32\stm32_high\sw\prj\RIDE\all_demo\stm32f10x_i2c.o
 .text.I2C_CheckEvent
                0x00000000       0x1c D:\svn\stm32\stm32_high\sw\prj\RIDE\all_demo\stm32f10x_i2c.o
 .text.I2C_GetLastEvent
                0x00000000       0x10 D:\svn\stm32\stm32_high\sw\prj\RIDE\all_demo\stm32f10x_i2c.o
 .text.I2C_GetFlagStatus
                0x00000000       0x40 D:\svn\stm32\stm32_high\sw\prj\RIDE\all_demo\stm32f10x_i2c.o
 .text.I2C_ClearFlag
                0x00000000        0xc D:\svn\stm32\stm32_high\sw\prj\RIDE\all_demo\stm32f10x_i2c.o
 .text.I2C_GetITStatus
                0x00000000       0x24 D:\svn\stm32\stm32_high\sw\prj\RIDE\all_demo\stm32f10x_i2c.o
 .text.I2C_ClearITPendingBit
                0x00000000        0xc D:\svn\stm32\stm32_high\sw\prj\RIDE\all_demo\stm32f10x_i2c.o
 .text          0x00000000        0x0 D:\svn\stm32\stm32_high\sw\prj\RIDE\all_demo\stm32f10x_iwdg.o
 .data          0x00000000        0x0 D:\svn\stm32\stm32_high\sw\prj\RIDE\all_demo\stm32f10x_iwdg.o
 .bss           0x00000000        0x0 D:\svn\stm32\stm32_high\sw\prj\RIDE\all_demo\stm32f10x_iwdg.o
 .text.IWDG_WriteAccessCmd
                0x00000000        0xc D:\svn\stm32\stm32_high\sw\prj\RIDE\all_demo\stm32f10x_iwdg.o
 .text.IWDG_SetPrescaler
                0x00000000        0xc D:\svn\stm32\stm32_high\sw\prj\RIDE\all_demo\stm32f10x_iwdg.o
 .text.IWDG_SetReload
                0x00000000        0xc D:\svn\stm32\stm32_high\sw\prj\RIDE\all_demo\stm32f10x_iwdg.o
 .text.IWDG_ReloadCounter
                0x00000000       0x10 D:\svn\stm32\stm32_high\sw\prj\RIDE\all_demo\stm32f10x_iwdg.o
 .text.IWDG_Enable
                0x00000000       0x10 D:\svn\stm32\stm32_high\sw\prj\RIDE\all_demo\stm32f10x_iwdg.o
 .text.IWDG_GetFlagStatus
                0x00000000       0x14 D:\svn\stm32\stm32_high\sw\prj\RIDE\all_demo\stm32f10x_iwdg.o
 .text          0x00000000        0x0 D:\svn\stm32\stm32_high\sw\prj\RIDE\all_demo\stm32f10x_pwr.o
 .data          0x00000000        0x0 D:\svn\stm32\stm32_high\sw\prj\RIDE\all_demo\stm32f10x_pwr.o
 .bss           0x00000000        0x0 D:\svn\stm32\stm32_high\sw\prj\RIDE\all_demo\stm32f10x_pwr.o
 .text.PWR_DeInit
                0x00000000       0x1c D:\svn\stm32\stm32_high\sw\prj\RIDE\all_demo\stm32f10x_pwr.o
 .text.PWR_PVDCmd
                0x00000000        0xc D:\svn\stm32\stm32_high\sw\prj\RIDE\all_demo\stm32f10x_pwr.o
 .text.PWR_PVDLevelConfig
                0x00000000       0x14 D:\svn\stm32\stm32_high\sw\prj\RIDE\all_demo\stm32f10x_pwr.o
 .text.PWR_WakeUpPinCmd
                0x00000000        0xc D:\svn\stm32\stm32_high\sw\prj\RIDE\all_demo\stm32f10x_pwr.o
 .text.PWR_EnterSTOPMode
                0x00000000       0x3c D:\svn\stm32\stm32_high\sw\prj\RIDE\all_demo\stm32f10x_pwr.o
 .text.PWR_EnterSTANDBYMode
                0x00000000       0x2c D:\svn\stm32\stm32_high\sw\prj\RIDE\all_demo\stm32f10x_pwr.o
 .text.PWR_GetFlagStatus
                0x00000000       0x14 D:\svn\stm32\stm32_high\sw\prj\RIDE\all_demo\stm32f10x_pwr.o
 .text.PWR_ClearFlag
                0x00000000       0x10 D:\svn\stm32\stm32_high\sw\prj\RIDE\all_demo\stm32f10x_pwr.o
 .text          0x00000000        0x0 D:\svn\stm32\stm32_high\sw\prj\RIDE\all_demo\stm32f10x_rcc.o
 .bss           0x00000000        0x0 D:\svn\stm32\stm32_high\sw\prj\RIDE\all_demo\stm32f10x_rcc.o
 .text.RCC_AdjustHSICalibrationValue
                0x00000000       0x14 D:\svn\stm32\stm32_high\sw\prj\RIDE\all_demo\stm32f10x_rcc.o
 .text.RCC_HSICmd
                0x00000000        0xc D:\svn\stm32\stm32_high\sw\prj\RIDE\all_demo\stm32f10x_rcc.o
 .text.RCC_ITConfig
                0x00000000       0x1c D:\svn\stm32\stm32_high\sw\prj\RIDE\all_demo\stm32f10x_rcc.o
 .text.RCC_ADCCLKConfig
                0x00000000       0x14 D:\svn\stm32\stm32_high\sw\prj\RIDE\all_demo\stm32f10x_rcc.o
 .text.RCC_LSICmd
                0x00000000        0xc D:\svn\stm32\stm32_high\sw\prj\RIDE\all_demo\stm32f10x_rcc.o
 .text.RCC_APB2PeriphResetCmd
                0x00000000       0x1c D:\svn\stm32\stm32_high\sw\prj\RIDE\all_demo\stm32f10x_rcc.o
 .text.RCC_ClockSecuritySystemCmd
                0x00000000        0xc D:\svn\stm32\stm32_high\sw\prj\RIDE\all_demo\stm32f10x_rcc.o
 .text.RCC_MCOConfig
                0x00000000        0xc D:\svn\stm32\stm32_high\sw\prj\RIDE\all_demo\stm32f10x_rcc.o
 .text.RCC_GetITStatus
                0x00000000       0x14 D:\svn\stm32\stm32_high\sw\prj\RIDE\all_demo\stm32f10x_rcc.o
 .text.RCC_ClearITPendingBit
                0x00000000        0xc D:\svn\stm32\stm32_high\sw\prj\RIDE\all_demo\stm32f10x_rcc.o
 .text          0x00000000        0x0 D:\svn\stm32\stm32_high\sw\prj\RIDE\all_demo\stm32f10x_rtc.o
 .data          0x00000000        0x0 D:\svn\stm32\stm32_high\sw\prj\RIDE\all_demo\stm32f10x_rtc.o
 .bss           0x00000000        0x0 D:\svn\stm32\stm32_high\sw\prj\RIDE\all_demo\stm32f10x_rtc.o
 .text.RTC_SetAlarm
                0x00000000       0x20 D:\svn\stm32\stm32_high\sw\prj\RIDE\all_demo\stm32f10x_rtc.o
 .text.RTC_GetDivider
                0x00000000       0x18 D:\svn\stm32\stm32_high\sw\prj\RIDE\all_demo\stm32f10x_rtc.o
 .text.RTC_GetFlagStatus
                0x00000000       0x14 D:\svn\stm32\stm32_high\sw\prj\RIDE\all_demo\stm32f10x_rtc.o
 .text.RTC_ClearFlag
                0x00000000       0x14 D:\svn\stm32\stm32_high\sw\prj\RIDE\all_demo\stm32f10x_rtc.o
 .text          0x00000000        0x0 D:\svn\stm32\stm32_high\sw\prj\RIDE\all_demo\stm32f10x_sdio.o
 .data          0x00000000        0x0 D:\svn\stm32\stm32_high\sw\prj\RIDE\all_demo\stm32f10x_sdio.o
 .bss           0x00000000        0x0 D:\svn\stm32\stm32_high\sw\prj\RIDE\all_demo\stm32f10x_sdio.o
 .text.SDIO_DeInit
                0x00000000       0x24 D:\svn\stm32\stm32_high\sw\prj\RIDE\all_demo\stm32f10x_sdio.o
 .text.SDIO_Init
                0x00000000       0x34 D:\svn\stm32\stm32_high\sw\prj\RIDE\all_demo\stm32f10x_sdio.o
 .text.SDIO_StructInit
                0x00000000       0x14 D:\svn\stm32\stm32_high\sw\prj\RIDE\all_demo\stm32f10x_sdio.o
 .text.SDIO_ClockCmd
                0x00000000        0xc D:\svn\stm32\stm32_high\sw\prj\RIDE\all_demo\stm32f10x_sdio.o
 .text.SDIO_SetPowerState
                0x00000000        0xc D:\svn\stm32\stm32_high\sw\prj\RIDE\all_demo\stm32f10x_sdio.o
 .text.SDIO_GetPowerState
                0x00000000       0x10 D:\svn\stm32\stm32_high\sw\prj\RIDE\all_demo\stm32f10x_sdio.o
 .text.SDIO_ITConfig
                0x00000000       0x1c D:\svn\stm32\stm32_high\sw\prj\RIDE\all_demo\stm32f10x_sdio.o
 .text.SDIO_DMACmd
                0x00000000        0xc D:\svn\stm32\stm32_high\sw\prj\RIDE\all_demo\stm32f10x_sdio.o
 .text.SDIO_SendCommand
                0x00000000       0x30 D:\svn\stm32\stm32_high\sw\prj\RIDE\all_demo\stm32f10x_sdio.o
 .text.SDIO_CmdStructInit
                0x00000000       0x10 D:\svn\stm32\stm32_high\sw\prj\RIDE\all_demo\stm32f10x_sdio.o
 .text.SDIO_GetCommandResponse
                0x00000000        0xc D:\svn\stm32\stm32_high\sw\prj\RIDE\all_demo\stm32f10x_sdio.o
 .text.SDIO_GetResponse
                0x00000000       0x1c D:\svn\stm32\stm32_high\sw\prj\RIDE\all_demo\stm32f10x_sdio.o
 .text.SDIO_DataConfig
                0x00000000       0x30 D:\svn\stm32\stm32_high\sw\prj\RIDE\all_demo\stm32f10x_sdio.o
 .text.SDIO_DataStructInit
                0x00000000       0x18 D:\svn\stm32\stm32_high\sw\prj\RIDE\all_demo\stm32f10x_sdio.o
 .text.SDIO_GetDataCounter
                0x00000000        0xc D:\svn\stm32\stm32_high\sw\prj\RIDE\all_demo\stm32f10x_sdio.o
 .text.SDIO_ReadData
                0x00000000        0xc D:\svn\stm32\stm32_high\sw\prj\RIDE\all_demo\stm32f10x_sdio.o
 .text.SDIO_WriteData
                0x00000000        0xc D:\svn\stm32\stm32_high\sw\prj\RIDE\all_demo\stm32f10x_sdio.o
 .text.SDIO_GetFIFOCount
                0x00000000        0xc D:\svn\stm32\stm32_high\sw\prj\RIDE\all_demo\stm32f10x_sdio.o
 .text.SDIO_StartSDIOReadWait
                0x00000000        0xc D:\svn\stm32\stm32_high\sw\prj\RIDE\all_demo\stm32f10x_sdio.o
 .text.SDIO_StopSDIOReadWait
                0x00000000        0xc D:\svn\stm32\stm32_high\sw\prj\RIDE\all_demo\stm32f10x_sdio.o
 .text.SDIO_SetSDIOReadWaitMode
                0x00000000        0xc D:\svn\stm32\stm32_high\sw\prj\RIDE\all_demo\stm32f10x_sdio.o
 .text.SDIO_SetSDIOOperation
                0x00000000        0xc D:\svn\stm32\stm32_high\sw\prj\RIDE\all_demo\stm32f10x_sdio.o
 .text.SDIO_SendSDIOSuspendCmd
                0x00000000        0xc D:\svn\stm32\stm32_high\sw\prj\RIDE\all_demo\stm32f10x_sdio.o
 .text.SDIO_CommandCompletionCmd
                0x00000000        0xc D:\svn\stm32\stm32_high\sw\prj\RIDE\all_demo\stm32f10x_sdio.o
 .text.SDIO_CEATAITCmd
                0x00000000       0x14 D:\svn\stm32\stm32_high\sw\prj\RIDE\all_demo\stm32f10x_sdio.o
 .text.SDIO_SendCEATACmd
                0x00000000        0xc D:\svn\stm32\stm32_high\sw\prj\RIDE\all_demo\stm32f10x_sdio.o
 .text.SDIO_GetFlagStatus
                0x00000000       0x14 D:\svn\stm32\stm32_high\sw\prj\RIDE\all_demo\stm32f10x_sdio.o
 .text.SDIO_ClearFlag
                0x00000000        0xc D:\svn\stm32\stm32_high\sw\prj\RIDE\all_demo\stm32f10x_sdio.o
 .text.SDIO_GetITStatus
                0x00000000       0x14 D:\svn\stm32\stm32_high\sw\prj\RIDE\all_demo\stm32f10x_sdio.o
 .text.SDIO_ClearITPendingBit
                0x00000000        0xc D:\svn\stm32\stm32_high\sw\prj\RIDE\all_demo\stm32f10x_sdio.o
 .text          0x00000000        0x0 D:\svn\stm32\stm32_high\sw\prj\RIDE\all_demo\stm32f10x_spi.o
 .data          0x00000000        0x0 D:\svn\stm32\stm32_high\sw\prj\RIDE\all_demo\stm32f10x_spi.o
 .bss           0x00000000        0x0 D:\svn\stm32\stm32_high\sw\prj\RIDE\all_demo\stm32f10x_spi.o
 .text.SPI_I2S_DeInit
                0x00000000       0x70 D:\svn\stm32\stm32_high\sw\prj\RIDE\all_demo\stm32f10x_spi.o
 .text.I2S_Init
                0x00000000       0xdc D:\svn\stm32\stm32_high\sw\prj\RIDE\all_demo\stm32f10x_spi.o
 .text.SPI_StructInit
                0x00000000       0x1c D:\svn\stm32\stm32_high\sw\prj\RIDE\all_demo\stm32f10x_spi.o
 .text.I2S_StructInit
                0x00000000       0x18 D:\svn\stm32\stm32_high\sw\prj\RIDE\all_demo\stm32f10x_spi.o
 .text.I2S_Cmd  0x00000000       0x20 D:\svn\stm32\stm32_high\sw\prj\RIDE\all_demo\stm32f10x_spi.o
 .text.SPI_I2S_ITConfig
                0x00000000       0x28 D:\svn\stm32\stm32_high\sw\prj\RIDE\all_demo\stm32f10x_spi.o
 .text.SPI_I2S_DMACmd
                0x00000000       0x18 D:\svn\stm32\stm32_high\sw\prj\RIDE\all_demo\stm32f10x_spi.o
 .text.SPI_NSSInternalSoftwareConfig
                0x00000000       0x28 D:\svn\stm32\stm32_high\sw\prj\RIDE\all_demo\stm32f10x_spi.o
 .text.SPI_SSOutputCmd
                0x00000000       0x20 D:\svn\stm32\stm32_high\sw\prj\RIDE\all_demo\stm32f10x_spi.o
 .text.SPI_DataSizeConfig
                0x00000000       0x1c D:\svn\stm32\stm32_high\sw\prj\RIDE\all_demo\stm32f10x_spi.o
 .text.SPI_TransmitCRC
                0x00000000        0xc D:\svn\stm32\stm32_high\sw\prj\RIDE\all_demo\stm32f10x_spi.o
 .text.SPI_CalculateCRC
                0x00000000       0x20 D:\svn\stm32\stm32_high\sw\prj\RIDE\all_demo\stm32f10x_spi.o
 .text.SPI_GetCRC
                0x00000000       0x10 D:\svn\stm32\stm32_high\sw\prj\RIDE\all_demo\stm32f10x_spi.o
 .text.SPI_GetCRCPolynomial
                0x00000000        0x8 D:\svn\stm32\stm32_high\sw\prj\RIDE\all_demo\stm32f10x_spi.o
 .text.SPI_BiDirectionalLineConfig
                0x00000000       0x24 D:\svn\stm32\stm32_high\sw\prj\RIDE\all_demo\stm32f10x_spi.o
 .text.SPI_I2S_ClearFlag
                0x00000000        0xc D:\svn\stm32\stm32_high\sw\prj\RIDE\all_demo\stm32f10x_spi.o
 .text.SPI_I2S_GetITStatus
                0x00000000       0x34 D:\svn\stm32\stm32_high\sw\prj\RIDE\all_demo\stm32f10x_spi.o
 .text.SPI_I2S_ClearITPendingBit
                0x00000000       0x18 D:\svn\stm32\stm32_high\sw\prj\RIDE\all_demo\stm32f10x_spi.o
 .text          0x00000000        0x0 D:\svn\stm32\stm32_high\sw\prj\RIDE\all_demo\stm32f10x_tim.o
 .data          0x00000000        0x0 D:\svn\stm32\stm32_high\sw\prj\RIDE\all_demo\stm32f10x_tim.o
 .bss           0x00000000        0x0 D:\svn\stm32\stm32_high\sw\prj\RIDE\all_demo\stm32f10x_tim.o
 .text.TI1_Config
                0x00000000       0x84 D:\svn\stm32\stm32_high\sw\prj\RIDE\all_demo\stm32f10x_tim.o
 .text.TI2_Config
                0x00000000       0x84 D:\svn\stm32\stm32_high\sw\prj\RIDE\all_demo\stm32f10x_tim.o
 .text.TIM_DeInit
                0x00000000      0x260 D:\svn\stm32\stm32_high\sw\prj\RIDE\all_demo\stm32f10x_tim.o
 .text.TIM_OC1Init
                0x00000000       0xa8 D:\svn\stm32\stm32_high\sw\prj\RIDE\all_demo\stm32f10x_tim.o
 .text.TIM_OC2Init
                0x00000000       0x9c D:\svn\stm32\stm32_high\sw\prj\RIDE\all_demo\stm32f10x_tim.o
 .text.TIM_OC3Init
                0x00000000       0x98 D:\svn\stm32\stm32_high\sw\prj\RIDE\all_demo\stm32f10x_tim.o
 .text.TIM_OC4Init
                0x00000000       0x7c D:\svn\stm32\stm32_high\sw\prj\RIDE\all_demo\stm32f10x_tim.o
 .text.TIM_BDTRConfig
                0x00000000       0x24 D:\svn\stm32\stm32_high\sw\prj\RIDE\all_demo\stm32f10x_tim.o
 .text.TIM_TimeBaseStructInit
                0x00000000       0x14 D:\svn\stm32\stm32_high\sw\prj\RIDE\all_demo\stm32f10x_tim.o
 .text.TIM_OCStructInit
                0x00000000       0x18 D:\svn\stm32\stm32_high\sw\prj\RIDE\all_demo\stm32f10x_tim.o
 .text.TIM_ICStructInit
                0x00000000       0x14 D:\svn\stm32\stm32_high\sw\prj\RIDE\all_demo\stm32f10x_tim.o
 .text.TIM_BDTRStructInit
                0x00000000       0x14 D:\svn\stm32\stm32_high\sw\prj\RIDE\all_demo\stm32f10x_tim.o
 .text.TIM_CtrlPWMOutputs
                0x00000000       0x28 D:\svn\stm32\stm32_high\sw\prj\RIDE\all_demo\stm32f10x_tim.o
 .text.TIM_GenerateEvent
                0x00000000        0x4 D:\svn\stm32\stm32_high\sw\prj\RIDE\all_demo\stm32f10x_tim.o
 .text.TIM_DMAConfig
                0x00000000        0x8 D:\svn\stm32\stm32_high\sw\prj\RIDE\all_demo\stm32f10x_tim.o
 .text.TIM_DMACmd
                0x00000000       0x18 D:\svn\stm32\stm32_high\sw\prj\RIDE\all_demo\stm32f10x_tim.o
 .text.TIM_InternalClockConfig
                0x00000000       0x14 D:\svn\stm32\stm32_high\sw\prj\RIDE\all_demo\stm32f10x_tim.o
 .text.TIM_ETRConfig
                0x00000000       0x1c D:\svn\stm32\stm32_high\sw\prj\RIDE\all_demo\stm32f10x_tim.o
 .text.TIM_ETRClockMode2Config
                0x00000000       0x14 D:\svn\stm32\stm32_high\sw\prj\RIDE\all_demo\stm32f10x_tim.o
 .text.TIM_ETRClockMode1Config
                0x00000000       0x20 D:\svn\stm32\stm32_high\sw\prj\RIDE\all_demo\stm32f10x_tim.o
 .text.TIM_PrescalerConfig
                0x00000000        0x8 D:\svn\stm32\stm32_high\sw\prj\RIDE\all_demo\stm32f10x_tim.o
 .text.TIM_CounterModeConfig
                0x00000000       0x18 D:\svn\stm32\stm32_high\sw\prj\RIDE\all_demo\stm32f10x_tim.o
 .text.TIM_SelectInputTrigger
                0x00000000       0x18 D:\svn\stm32\stm32_high\sw\prj\RIDE\all_demo\stm32f10x_tim.o
 .text.TIM_TIxExternalClockConfig
                0x00000000       0x34 D:\svn\stm32\stm32_high\sw\prj\RIDE\all_demo\stm32f10x_tim.o
 .text.TIM_ITRxExternalClockConfig
                0x00000000       0x14 D:\svn\stm32\stm32_high\sw\prj\RIDE\all_demo\stm32f10x_tim.o
 .text.TIM_EncoderInterfaceConfig
                0x00000000       0x50 D:\svn\stm32\stm32_high\sw\prj\RIDE\all_demo\stm32f10x_tim.o
 .text.TIM_ForcedOC1Config
                0x00000000       0x18 D:\svn\stm32\stm32_high\sw\prj\RIDE\all_demo\stm32f10x_tim.o
 .text.TIM_ForcedOC2Config
                0x00000000       0x18 D:\svn\stm32\stm32_high\sw\prj\RIDE\all_demo\stm32f10x_tim.o
 .text.TIM_ForcedOC3Config
                0x00000000       0x18 D:\svn\stm32\stm32_high\sw\prj\RIDE\all_demo\stm32f10x_tim.o
 .text.TIM_ForcedOC4Config
                0x00000000       0x18 D:\svn\stm32\stm32_high\sw\prj\RIDE\all_demo\stm32f10x_tim.o
 .text.TIM_SelectCOM
                0x00000000       0x20 D:\svn\stm32\stm32_high\sw\prj\RIDE\all_demo\stm32f10x_tim.o
 .text.TIM_SelectCCDMA
                0x00000000       0x20 D:\svn\stm32\stm32_high\sw\prj\RIDE\all_demo\stm32f10x_tim.o
 .text.TIM_CCPreloadControl
                0x00000000       0x20 D:\svn\stm32\stm32_high\sw\prj\RIDE\all_demo\stm32f10x_tim.o
 .text.TIM_OC1PreloadConfig
                0x00000000       0x18 D:\svn\stm32\stm32_high\sw\prj\RIDE\all_demo\stm32f10x_tim.o
 .text.TIM_OC2PreloadConfig
                0x00000000       0x18 D:\svn\stm32\stm32_high\sw\prj\RIDE\all_demo\stm32f10x_tim.o
 .text.TIM_OC3PreloadConfig
                0x00000000       0x18 D:\svn\stm32\stm32_high\sw\prj\RIDE\all_demo\stm32f10x_tim.o
 .text.TIM_OC4PreloadConfig
                0x00000000       0x18 D:\svn\stm32\stm32_high\sw\prj\RIDE\all_demo\stm32f10x_tim.o
 .text.TIM_OC1FastConfig
                0x00000000       0x18 D:\svn\stm32\stm32_high\sw\prj\RIDE\all_demo\stm32f10x_tim.o
 .text.TIM_OC2FastConfig
                0x00000000       0x18 D:\svn\stm32\stm32_high\sw\prj\RIDE\all_demo\stm32f10x_tim.o
 .text.TIM_OC3FastConfig
                0x00000000       0x18 D:\svn\stm32\stm32_high\sw\prj\RIDE\all_demo\stm32f10x_tim.o
 .text.TIM_OC4FastConfig
                0x00000000       0x18 D:\svn\stm32\stm32_high\sw\prj\RIDE\all_demo\stm32f10x_tim.o
 .text.TIM_ClearOC1Ref
                0x00000000       0x18 D:\svn\stm32\stm32_high\sw\prj\RIDE\all_demo\stm32f10x_tim.o
 .text.TIM_ClearOC2Ref
                0x00000000       0x14 D:\svn\stm32\stm32_high\sw\prj\RIDE\all_demo\stm32f10x_tim.o
 .text.TIM_ClearOC3Ref
                0x00000000       0x18 D:\svn\stm32\stm32_high\sw\prj\RIDE\all_demo\stm32f10x_tim.o
 .text.TIM_ClearOC4Ref
                0x00000000       0x14 D:\svn\stm32\stm32_high\sw\prj\RIDE\all_demo\stm32f10x_tim.o
 .text.TIM_OC1PolarityConfig
                0x00000000       0x18 D:\svn\stm32\stm32_high\sw\prj\RIDE\all_demo\stm32f10x_tim.o
 .text.TIM_OC1NPolarityConfig
                0x00000000       0x18 D:\svn\stm32\stm32_high\sw\prj\RIDE\all_demo\stm32f10x_tim.o
 .text.TIM_OC2PolarityConfig
                0x00000000       0x18 D:\svn\stm32\stm32_high\sw\prj\RIDE\all_demo\stm32f10x_tim.o
 .text.TIM_OC2NPolarityConfig
                0x00000000       0x18 D:\svn\stm32\stm32_high\sw\prj\RIDE\all_demo\stm32f10x_tim.o
 .text.TIM_OC3PolarityConfig
                0x00000000       0x18 D:\svn\stm32\stm32_high\sw\prj\RIDE\all_demo\stm32f10x_tim.o
 .text.TIM_OC3NPolarityConfig
                0x00000000       0x18 D:\svn\stm32\stm32_high\sw\prj\RIDE\all_demo\stm32f10x_tim.o
 .text.TIM_OC4PolarityConfig
                0x00000000       0x18 D:\svn\stm32\stm32_high\sw\prj\RIDE\all_demo\stm32f10x_tim.o
 .text.TIM_CCxCmd
                0x00000000       0x28 D:\svn\stm32\stm32_high\sw\prj\RIDE\all_demo\stm32f10x_tim.o
 .text.TIM_CCxNCmd
                0x00000000       0x28 D:\svn\stm32\stm32_high\sw\prj\RIDE\all_demo\stm32f10x_tim.o
 .text.TIM_SelectOCxM
                0x00000000       0x58 D:\svn\stm32\stm32_high\sw\prj\RIDE\all_demo\stm32f10x_tim.o
 .text.TIM_UpdateDisableConfig
                0x00000000       0x20 D:\svn\stm32\stm32_high\sw\prj\RIDE\all_demo\stm32f10x_tim.o
 .text.TIM_UpdateRequestConfig
                0x00000000       0x20 D:\svn\stm32\stm32_high\sw\prj\RIDE\all_demo\stm32f10x_tim.o
 .text.TIM_SelectHallSensor
                0x00000000       0x20 D:\svn\stm32\stm32_high\sw\prj\RIDE\all_demo\stm32f10x_tim.o
 .text.TIM_SelectOnePulseMode
                0x00000000       0x1c D:\svn\stm32\stm32_high\sw\prj\RIDE\all_demo\stm32f10x_tim.o
 .text.TIM_SelectOutputTrigger
                0x00000000       0x1c D:\svn\stm32\stm32_high\sw\prj\RIDE\all_demo\stm32f10x_tim.o
 .text.TIM_SelectSlaveMode
                0x00000000       0x1c D:\svn\stm32\stm32_high\sw\prj\RIDE\all_demo\stm32f10x_tim.o
 .text.TIM_SelectMasterSlaveMode
                0x00000000       0x1c D:\svn\stm32\stm32_high\sw\prj\RIDE\all_demo\stm32f10x_tim.o
 .text.TIM_SetCounter
                0x00000000        0x4 D:\svn\stm32\stm32_high\sw\prj\RIDE\all_demo\stm32f10x_tim.o
 .text.TIM_SetAutoreload
                0x00000000        0x4 D:\svn\stm32\stm32_high\sw\prj\RIDE\all_demo\stm32f10x_tim.o
 .text.TIM_SetCompare1
                0x00000000        0x4 D:\svn\stm32\stm32_high\sw\prj\RIDE\all_demo\stm32f10x_tim.o
 .text.TIM_SetCompare2
                0x00000000        0x4 D:\svn\stm32\stm32_high\sw\prj\RIDE\all_demo\stm32f10x_tim.o
 .text.TIM_SetCompare3
                0x00000000        0x4 D:\svn\stm32\stm32_high\sw\prj\RIDE\all_demo\stm32f10x_tim.o
 .text.TIM_SetCompare4
                0x00000000        0x8 D:\svn\stm32\stm32_high\sw\prj\RIDE\all_demo\stm32f10x_tim.o
 .text.TIM_SetIC1Prescaler
                0x00000000       0x1c D:\svn\stm32\stm32_high\sw\prj\RIDE\all_demo\stm32f10x_tim.o
 .text.TIM_SetIC2Prescaler
                0x00000000       0x20 D:\svn\stm32\stm32_high\sw\prj\RIDE\all_demo\stm32f10x_tim.o
 .text.TIM_PWMIConfig
                0x00000000       0x68 D:\svn\stm32\stm32_high\sw\prj\RIDE\all_demo\stm32f10x_tim.o
 .text.TIM_SetIC3Prescaler
                0x00000000       0x1c D:\svn\stm32\stm32_high\sw\prj\RIDE\all_demo\stm32f10x_tim.o
 .text.TIM_SetIC4Prescaler
                0x00000000       0x20 D:\svn\stm32\stm32_high\sw\prj\RIDE\all_demo\stm32f10x_tim.o
 .text.TIM_ICInit
                0x00000000      0x154 D:\svn\stm32\stm32_high\sw\prj\RIDE\all_demo\stm32f10x_tim.o
 .text.TIM_SetClockDivision
                0x00000000       0x1c D:\svn\stm32\stm32_high\sw\prj\RIDE\all_demo\stm32f10x_tim.o
 .text.TIM_GetCapture1
                0x00000000        0x8 D:\svn\stm32\stm32_high\sw\prj\RIDE\all_demo\stm32f10x_tim.o
 .text.TIM_GetCapture2
                0x00000000        0x8 D:\svn\stm32\stm32_high\sw\prj\RIDE\all_demo\stm32f10x_tim.o
 .text.TIM_GetCapture3
                0x00000000        0x8 D:\svn\stm32\stm32_high\sw\prj\RIDE\all_demo\stm32f10x_tim.o
 .text.TIM_GetCapture4
                0x00000000        0x8 D:\svn\stm32\stm32_high\sw\prj\RIDE\all_demo\stm32f10x_tim.o
 .text.TIM_GetCounter
                0x00000000        0x8 D:\svn\stm32\stm32_high\sw\prj\RIDE\all_demo\stm32f10x_tim.o
 .text.TIM_GetPrescaler
                0x00000000        0x8 D:\svn\stm32\stm32_high\sw\prj\RIDE\all_demo\stm32f10x_tim.o
 .text.TIM_GetFlagStatus
                0x00000000        0xc D:\svn\stm32\stm32_high\sw\prj\RIDE\all_demo\stm32f10x_tim.o
 .text.TIM_GetITStatus
                0x00000000       0x1c D:\svn\stm32\stm32_high\sw\prj\RIDE\all_demo\stm32f10x_tim.o
 .text          0x00000000        0x0 D:\svn\stm32\stm32_high\sw\prj\RIDE\all_demo\stm32f10x_usart.o
 .data          0x00000000        0x0 D:\svn\stm32\stm32_high\sw\prj\RIDE\all_demo\stm32f10x_usart.o
 .bss           0x00000000        0x0 D:\svn\stm32\stm32_high\sw\prj\RIDE\all_demo\stm32f10x_usart.o
 .text.USART_DeInit
                0x00000000       0xb8 D:\svn\stm32\stm32_high\sw\prj\RIDE\all_demo\stm32f10x_usart.o
 .text.USART_StructInit
                0x00000000       0x1c D:\svn\stm32\stm32_high\sw\prj\RIDE\all_demo\stm32f10x_usart.o
 .text.USART_ClockInit
                0x00000000       0x2c D:\svn\stm32\stm32_high\sw\prj\RIDE\all_demo\stm32f10x_usart.o
 .text.USART_ClockStructInit
                0x00000000       0x10 D:\svn\stm32\stm32_high\sw\prj\RIDE\all_demo\stm32f10x_usart.o
 .text.USART_DMACmd
                0x00000000       0x18 D:\svn\stm32\stm32_high\sw\prj\RIDE\all_demo\stm32f10x_usart.o
 .text.USART_SetAddress
                0x00000000       0x1c D:\svn\stm32\stm32_high\sw\prj\RIDE\all_demo\stm32f10x_usart.o
 .text.USART_WakeUpConfig
                0x00000000       0x1c D:\svn\stm32\stm32_high\sw\prj\RIDE\all_demo\stm32f10x_usart.o
 .text.USART_ReceiverWakeUpCmd
                0x00000000       0x20 D:\svn\stm32\stm32_high\sw\prj\RIDE\all_demo\stm32f10x_usart.o
 .text.USART_LINBreakDetectLengthConfig
                0x00000000       0x1c D:\svn\stm32\stm32_high\sw\prj\RIDE\all_demo\stm32f10x_usart.o
 .text.USART_LINCmd
                0x00000000       0x20 D:\svn\stm32\stm32_high\sw\prj\RIDE\all_demo\stm32f10x_usart.o
 .text.USART_SendBreak
                0x00000000        0xc D:\svn\stm32\stm32_high\sw\prj\RIDE\all_demo\stm32f10x_usart.o
 .text.USART_SetGuardTime
                0x00000000       0x14 D:\svn\stm32\stm32_high\sw\prj\RIDE\all_demo\stm32f10x_usart.o
 .text.USART_SetPrescaler
                0x00000000       0x14 D:\svn\stm32\stm32_high\sw\prj\RIDE\all_demo\stm32f10x_usart.o
 .text.USART_SmartCardCmd
                0x00000000       0x20 D:\svn\stm32\stm32_high\sw\prj\RIDE\all_demo\stm32f10x_usart.o
 .text.USART_SmartCardNACKCmd
                0x00000000       0x20 D:\svn\stm32\stm32_high\sw\prj\RIDE\all_demo\stm32f10x_usart.o
 .text.USART_HalfDuplexCmd
                0x00000000       0x20 D:\svn\stm32\stm32_high\sw\prj\RIDE\all_demo\stm32f10x_usart.o
 .text.USART_OverSampling8Cmd
                0x00000000       0x20 D:\svn\stm32\stm32_high\sw\prj\RIDE\all_demo\stm32f10x_usart.o
 .text.USART_OneBitMethodCmd
                0x00000000       0x20 D:\svn\stm32\stm32_high\sw\prj\RIDE\all_demo\stm32f10x_usart.o
 .text.USART_IrDAConfig
                0x00000000       0x1c D:\svn\stm32\stm32_high\sw\prj\RIDE\all_demo\stm32f10x_usart.o
 .text.USART_IrDACmd
                0x00000000       0x20 D:\svn\stm32\stm32_high\sw\prj\RIDE\all_demo\stm32f10x_usart.o
 .text.USART_ClearFlag
                0x00000000        0xc D:\svn\stm32\stm32_high\sw\prj\RIDE\all_demo\stm32f10x_usart.o
 .data          0x00000000        0x0 c:/program files/raisonance/ride/arm-gcc/bin/../lib/gcc/arm-none-eabi/4.5.2/../../../../arm-none-eabi/lib/thumb2\libc.a(lib_a-memcpy.o)
 .bss           0x00000000        0x0 c:/program files/raisonance/ride/arm-gcc/bin/../lib/gcc/arm-none-eabi/4.5.2/../../../../arm-none-eabi/lib/thumb2\libc.a(lib_a-memcpy.o)
 .ARM.attributes
                0x00000000       0x29 c:/program files/raisonance/ride/arm-gcc/bin/../lib/gcc/arm-none-eabi/4.5.2/../../../../arm-none-eabi/lib/thumb2\libc.a(lib_a-memcpy.o)
 .debug_frame   0x00000000       0x30 c:/program files/raisonance/ride/arm-gcc/bin/../lib/gcc/arm-none-eabi/4.5.2/../../../../arm-none-eabi/lib/thumb2\libc.a(lib_a-memcpy.o)
 .data          0x00000000        0x0 c:/program files/raisonance/ride/arm-gcc/bin/../lib/gcc/arm-none-eabi/4.5.2/../../../../arm-none-eabi/lib/thumb2\libc.a(lib_a-memset.o)
 .bss           0x00000000        0x0 c:/program files/raisonance/ride/arm-gcc/bin/../lib/gcc/arm-none-eabi/4.5.2/../../../../arm-none-eabi/lib/thumb2\libc.a(lib_a-memset.o)
 .ARM.attributes
                0x00000000       0x29 c:/program files/raisonance/ride/arm-gcc/bin/../lib/gcc/arm-none-eabi/4.5.2/../../../../arm-none-eabi/lib/thumb2\libc.a(lib_a-memset.o)
 .debug_frame   0x00000000       0x2c c:/program files/raisonance/ride/arm-gcc/bin/../lib/gcc/arm-none-eabi/4.5.2/../../../../arm-none-eabi/lib/thumb2\libc.a(lib_a-memset.o)
 .data          0x00000000        0x0 c:/program files/raisonance/ride/arm-gcc/bin/../lib/gcc/arm-none-eabi/4.5.2/../../../../arm-none-eabi/lib/thumb2\libc.a(lib_a-strlen.o)
 .bss           0x00000000        0x0 c:/program files/raisonance/ride/arm-gcc/bin/../lib/gcc/arm-none-eabi/4.5.2/../../../../arm-none-eabi/lib/thumb2\libc.a(lib_a-strlen.o)
 .ARM.attributes
                0x00000000       0x29 c:/program files/raisonance/ride/arm-gcc/bin/../lib/gcc/arm-none-eabi/4.5.2/../../../../arm-none-eabi/lib/thumb2\libc.a(lib_a-strlen.o)
 .debug_frame   0x00000000       0x20 c:/program files/raisonance/ride/arm-gcc/bin/../lib/gcc/arm-none-eabi/4.5.2/../../../../arm-none-eabi/lib/thumb2\libc.a(lib_a-strlen.o)
 .data          0x00000000        0x0 c:/program files/raisonance/ride/arm-gcc/bin/../lib/gcc/arm-none-eabi/4.5.2/../../../../arm-none-eabi/lib/thumb2\libc.a(lib_a-vsprintf.o)
 .bss           0x00000000        0x0 c:/program files/raisonance/ride/arm-gcc/bin/../lib/gcc/arm-none-eabi/4.5.2/../../../../arm-none-eabi/lib/thumb2\libc.a(lib_a-vsprintf.o)
 .ARM.attributes
                0x00000000       0x29 c:/program files/raisonance/ride/arm-gcc/bin/../lib/gcc/arm-none-eabi/4.5.2/../../../../arm-none-eabi/lib/thumb2\libc.a(lib_a-vsprintf.o)
 .debug_frame   0x00000000       0x48 c:/program files/raisonance/ride/arm-gcc/bin/../lib/gcc/arm-none-eabi/4.5.2/../../../../arm-none-eabi/lib/thumb2\libc.a(lib_a-vsprintf.o)
 .text          0x00000000        0x0 c:/program files/raisonance/ride/arm-gcc/bin/../lib/gcc/arm-none-eabi/4.5.2/../../../../arm-none-eabi/lib/thumb2\libc.a(lib_a-impure.o)
 .bss           0x00000000        0x0 c:/program files/raisonance/ride/arm-gcc/bin/../lib/gcc/arm-none-eabi/4.5.2/../../../../arm-none-eabi/lib/thumb2\libc.a(lib_a-impure.o)
 .rodata        0x00000000        0x4 c:/program files/raisonance/ride/arm-gcc/bin/../lib/gcc/arm-none-eabi/4.5.2/../../../../arm-none-eabi/lib/thumb2\libc.a(lib_a-impure.o)
 .ARM.attributes
                0x00000000       0x29 c:/program files/raisonance/ride/arm-gcc/bin/../lib/gcc/arm-none-eabi/4.5.2/../../../../arm-none-eabi/lib/thumb2\libc.a(lib_a-impure.o)
 .data          0x00000000        0x0 c:/program files/raisonance/ride/arm-gcc/bin/../lib/gcc/arm-none-eabi/4.5.2/../../../../arm-none-eabi/lib/thumb2\libc.a(lib_a-svfprintf.o)
 .bss           0x00000000        0x0 c:/program files/raisonance/ride/arm-gcc/bin/../lib/gcc/arm-none-eabi/4.5.2/../../../../arm-none-eabi/lib/thumb2\libc.a(lib_a-svfprintf.o)
 .ARM.attributes
                0x00000000       0x29 c:/program files/raisonance/ride/arm-gcc/bin/../lib/gcc/arm-none-eabi/4.5.2/../../../../arm-none-eabi/lib/thumb2\libc.a(lib_a-svfprintf.o)
 .debug_frame   0x00000000       0x3c c:/program files/raisonance/ride/arm-gcc/bin/../lib/gcc/arm-none-eabi/4.5.2/../../../../arm-none-eabi/lib/thumb2\libc.a(lib_a-svfprintf.o)
 .data          0x00000000        0x0 c:/program files/raisonance/ride/arm-gcc/bin/../lib/gcc/arm-none-eabi/4.5.2/../../../../arm-none-eabi/lib/thumb2\libc.a(lib_a-dtoa.o)
 .bss           0x00000000        0x0 c:/program files/raisonance/ride/arm-gcc/bin/../lib/gcc/arm-none-eabi/4.5.2/../../../../arm-none-eabi/lib/thumb2\libc.a(lib_a-dtoa.o)
 .ARM.attributes
                0x00000000       0x29 c:/program files/raisonance/ride/arm-gcc/bin/../lib/gcc/arm-none-eabi/4.5.2/../../../../arm-none-eabi/lib/thumb2\libc.a(lib_a-dtoa.o)
 .debug_frame   0x00000000       0x68 c:/program files/raisonance/ride/arm-gcc/bin/../lib/gcc/arm-none-eabi/4.5.2/../../../../arm-none-eabi/lib/thumb2\libc.a(lib_a-dtoa.o)
 .bss           0x00000000        0xc c:/program files/raisonance/ride/arm-gcc/bin/../lib/gcc/arm-none-eabi/4.5.2/../../../../arm-none-eabi/lib/thumb2\libc.a(lib_a-locale.o)
 .ARM.attributes
                0x00000000       0x29 c:/program files/raisonance/ride/arm-gcc/bin/../lib/gcc/arm-none-eabi/4.5.2/../../../../arm-none-eabi/lib/thumb2\libc.a(lib_a-locale.o)
 .debug_frame   0x00000000       0x98 c:/program files/raisonance/ride/arm-gcc/bin/../lib/gcc/arm-none-eabi/4.5.2/../../../../arm-none-eabi/lib/thumb2\libc.a(lib_a-locale.o)
 .data          0x00000000        0x0 c:/program files/raisonance/ride/arm-gcc/bin/../lib/gcc/arm-none-eabi/4.5.2/../../../../arm-none-eabi/lib/thumb2\libc.a(lib_a-malloc.o)
 .bss           0x00000000        0x0 c:/program files/raisonance/ride/arm-gcc/bin/../lib/gcc/arm-none-eabi/4.5.2/../../../../arm-none-eabi/lib/thumb2\libc.a(lib_a-malloc.o)
 .ARM.attributes
                0x00000000       0x29 c:/program files/raisonance/ride/arm-gcc/bin/../lib/gcc/arm-none-eabi/4.5.2/../../../../arm-none-eabi/lib/thumb2\libc.a(lib_a-malloc.o)
 .debug_frame   0x00000000       0x30 c:/program files/raisonance/ride/arm-gcc/bin/../lib/gcc/arm-none-eabi/4.5.2/../../../../arm-none-eabi/lib/thumb2\libc.a(lib_a-malloc.o)
 .ARM.attributes
                0x00000000       0x29 c:/program files/raisonance/ride/arm-gcc/bin/../lib/gcc/arm-none-eabi/4.5.2/../../../../arm-none-eabi/lib/thumb2\libc.a(lib_a-mallocr.o)
 .debug_frame   0x00000000       0x3c c:/program files/raisonance/ride/arm-gcc/bin/../lib/gcc/arm-none-eabi/4.5.2/../../../../arm-none-eabi/lib/thumb2\libc.a(lib_a-mallocr.o)
 .data          0x00000000        0x0 c:/program files/raisonance/ride/arm-gcc/bin/../lib/gcc/arm-none-eabi/4.5.2/../../../../arm-none-eabi/lib/thumb2\libc.a(lib_a-memchr.o)
 .bss           0x00000000        0x0 c:/program files/raisonance/ride/arm-gcc/bin/../lib/gcc/arm-none-eabi/4.5.2/../../../../arm-none-eabi/lib/thumb2\libc.a(lib_a-memchr.o)
 .ARM.attributes
                0x00000000       0x29 c:/program files/raisonance/ride/arm-gcc/bin/../lib/gcc/arm-none-eabi/4.5.2/../../../../arm-none-eabi/lib/thumb2\libc.a(lib_a-memchr.o)
 .debug_frame   0x00000000       0x2c c:/program files/raisonance/ride/arm-gcc/bin/../lib/gcc/arm-none-eabi/4.5.2/../../../../arm-none-eabi/lib/thumb2\libc.a(lib_a-memchr.o)
 .data          0x00000000        0x0 c:/program files/raisonance/ride/arm-gcc/bin/../lib/gcc/arm-none-eabi/4.5.2/../../../../arm-none-eabi/lib/thumb2\libc.a(lib_a-mlock.o)
 .bss           0x00000000        0x0 c:/program files/raisonance/ride/arm-gcc/bin/../lib/gcc/arm-none-eabi/4.5.2/../../../../arm-none-eabi/lib/thumb2\libc.a(lib_a-mlock.o)
 .ARM.attributes
                0x00000000       0x29 c:/program files/raisonance/ride/arm-gcc/bin/../lib/gcc/arm-none-eabi/4.5.2/../../../../arm-none-eabi/lib/thumb2\libc.a(lib_a-mlock.o)
 .debug_frame   0x00000000       0x30 c:/program files/raisonance/ride/arm-gcc/bin/../lib/gcc/arm-none-eabi/4.5.2/../../../../arm-none-eabi/lib/thumb2\libc.a(lib_a-mlock.o)
 .data          0x00000000        0x0 c:/program files/raisonance/ride/arm-gcc/bin/../lib/gcc/arm-none-eabi/4.5.2/../../../../arm-none-eabi/lib/thumb2\libc.a(lib_a-mprec.o)
 .bss           0x00000000        0x0 c:/program files/raisonance/ride/arm-gcc/bin/../lib/gcc/arm-none-eabi/4.5.2/../../../../arm-none-eabi/lib/thumb2\libc.a(lib_a-mprec.o)
 .ARM.attributes
                0x00000000       0x29 c:/program files/raisonance/ride/arm-gcc/bin/../lib/gcc/arm-none-eabi/4.5.2/../../../../arm-none-eabi/lib/thumb2\libc.a(lib_a-mprec.o)
 .debug_frame   0x00000000      0x244 c:/program files/raisonance/ride/arm-gcc/bin/../lib/gcc/arm-none-eabi/4.5.2/../../../../arm-none-eabi/lib/thumb2\libc.a(lib_a-mprec.o)
 .data          0x00000000        0x0 c:/program files/raisonance/ride/arm-gcc/bin/../lib/gcc/arm-none-eabi/4.5.2/../../../../arm-none-eabi/lib/thumb2\libc.a(lib_a-s_fpclassify.o)
 .bss           0x00000000        0x0 c:/program files/raisonance/ride/arm-gcc/bin/../lib/gcc/arm-none-eabi/4.5.2/../../../../arm-none-eabi/lib/thumb2\libc.a(lib_a-s_fpclassify.o)
 .ARM.attributes
                0x00000000       0x29 c:/program files/raisonance/ride/arm-gcc/bin/../lib/gcc/arm-none-eabi/4.5.2/../../../../arm-none-eabi/lib/thumb2\libc.a(lib_a-s_fpclassify.o)
 .debug_frame   0x00000000       0x28 c:/program files/raisonance/ride/arm-gcc/bin/../lib/gcc/arm-none-eabi/4.5.2/../../../../arm-none-eabi/lib/thumb2\libc.a(lib_a-s_fpclassify.o)
 .data          0x00000000        0x0 c:/program files/raisonance/ride/arm-gcc/bin/../lib/gcc/arm-none-eabi/4.5.2/../../../../arm-none-eabi/lib/thumb2\libc.a(lib_a-sbrkr.o)
 .bss           0x00000000        0x0 c:/program files/raisonance/ride/arm-gcc/bin/../lib/gcc/arm-none-eabi/4.5.2/../../../../arm-none-eabi/lib/thumb2\libc.a(lib_a-sbrkr.o)
 .ARM.attributes
                0x00000000       0x29 c:/program files/raisonance/ride/arm-gcc/bin/../lib/gcc/arm-none-eabi/4.5.2/../../../../arm-none-eabi/lib/thumb2\libc.a(lib_a-sbrkr.o)
 .debug_frame   0x00000000       0x2c c:/program files/raisonance/ride/arm-gcc/bin/../lib/gcc/arm-none-eabi/4.5.2/../../../../arm-none-eabi/lib/thumb2\libc.a(lib_a-sbrkr.o)
 .data          0x00000000        0x0 c:/program files/raisonance/ride/arm-gcc/bin/../lib/gcc/arm-none-eabi/4.5.2/../../../../arm-none-eabi/lib/thumb2\libc.a(lib_a-strcmp.o)
 .bss           0x00000000        0x0 c:/program files/raisonance/ride/arm-gcc/bin/../lib/gcc/arm-none-eabi/4.5.2/../../../../arm-none-eabi/lib/thumb2\libc.a(lib_a-strcmp.o)
 .ARM.attributes
                0x00000000       0x29 c:/program files/raisonance/ride/arm-gcc/bin/../lib/gcc/arm-none-eabi/4.5.2/../../../../arm-none-eabi/lib/thumb2\libc.a(lib_a-strcmp.o)
 .debug_frame   0x00000000       0x30 c:/program files/raisonance/ride/arm-gcc/bin/../lib/gcc/arm-none-eabi/4.5.2/../../../../arm-none-eabi/lib/thumb2\libc.a(lib_a-strcmp.o)
 .data          0x00000000        0x0 c:/program files/raisonance/ride/arm-gcc/bin/../lib/gcc/arm-none-eabi/4.5.2/../../../../arm-none-eabi/lib/thumb2\libc.a(lib_a-svfiprintf.o)
 .bss           0x00000000        0x0 c:/program files/raisonance/ride/arm-gcc/bin/../lib/gcc/arm-none-eabi/4.5.2/../../../../arm-none-eabi/lib/thumb2\libc.a(lib_a-svfiprintf.o)
 .ARM.attributes
                0x00000000       0x29 c:/program files/raisonance/ride/arm-gcc/bin/../lib/gcc/arm-none-eabi/4.5.2/../../../../arm-none-eabi/lib/thumb2\libc.a(lib_a-svfiprintf.o)
 .debug_frame   0x00000000       0x68 c:/program files/raisonance/ride/arm-gcc/bin/../lib/gcc/arm-none-eabi/4.5.2/../../../../arm-none-eabi/lib/thumb2\libc.a(lib_a-svfiprintf.o)
 .data          0x00000000        0x0 c:/program files/raisonance/ride/arm-gcc/bin/../lib/gcc/arm-none-eabi/4.5.2/../../../../arm-none-eabi/lib/thumb2\libc.a(lib_a-callocr.o)
 .bss           0x00000000        0x0 c:/program files/raisonance/ride/arm-gcc/bin/../lib/gcc/arm-none-eabi/4.5.2/../../../../arm-none-eabi/lib/thumb2\libc.a(lib_a-callocr.o)
 .ARM.attributes
                0x00000000       0x29 c:/program files/raisonance/ride/arm-gcc/bin/../lib/gcc/arm-none-eabi/4.5.2/../../../../arm-none-eabi/lib/thumb2\libc.a(lib_a-callocr.o)
 .debug_frame   0x00000000       0x2c c:/program files/raisonance/ride/arm-gcc/bin/../lib/gcc/arm-none-eabi/4.5.2/../../../../arm-none-eabi/lib/thumb2\libc.a(lib_a-callocr.o)
 .data          0x00000000        0x0 c:/program files/raisonance/ride/arm-gcc/bin/../lib/gcc/arm-none-eabi/4.5.2/../../../../arm-none-eabi/lib/thumb2\libc.a(lib_a-freer.o)
 .bss           0x00000000        0x0 c:/program files/raisonance/ride/arm-gcc/bin/../lib/gcc/arm-none-eabi/4.5.2/../../../../arm-none-eabi/lib/thumb2\libc.a(lib_a-freer.o)
 .ARM.attributes
                0x00000000       0x29 c:/program files/raisonance/ride/arm-gcc/bin/../lib/gcc/arm-none-eabi/4.5.2/../../../../arm-none-eabi/lib/thumb2\libc.a(lib_a-freer.o)
 .debug_frame   0x00000000       0x50 c:/program files/raisonance/ride/arm-gcc/bin/../lib/gcc/arm-none-eabi/4.5.2/../../../../arm-none-eabi/lib/thumb2\libc.a(lib_a-freer.o)
 .data          0x00000000        0x0 c:/program files/raisonance/ride/arm-gcc/bin/../lib/gcc/arm-none-eabi/4.5.2/../../../../arm-none-eabi/lib/thumb2\libc.a(lib_a-memmove.o)
 .bss           0x00000000        0x0 c:/program files/raisonance/ride/arm-gcc/bin/../lib/gcc/arm-none-eabi/4.5.2/../../../../arm-none-eabi/lib/thumb2\libc.a(lib_a-memmove.o)
 .ARM.attributes
                0x00000000       0x29 c:/program files/raisonance/ride/arm-gcc/bin/../lib/gcc/arm-none-eabi/4.5.2/../../../../arm-none-eabi/lib/thumb2\libc.a(lib_a-memmove.o)
 .debug_frame   0x00000000       0x2c c:/program files/raisonance/ride/arm-gcc/bin/../lib/gcc/arm-none-eabi/4.5.2/../../../../arm-none-eabi/lib/thumb2\libc.a(lib_a-memmove.o)
 .data          0x00000000        0x0 c:/program files/raisonance/ride/arm-gcc/bin/../lib/gcc/arm-none-eabi/4.5.2/../../../../arm-none-eabi/lib/thumb2\libc.a(lib_a-reallocr.o)
 .bss           0x00000000        0x0 c:/program files/raisonance/ride/arm-gcc/bin/../lib/gcc/arm-none-eabi/4.5.2/../../../../arm-none-eabi/lib/thumb2\libc.a(lib_a-reallocr.o)
 .ARM.attributes
                0x00000000       0x29 c:/program files/raisonance/ride/arm-gcc/bin/../lib/gcc/arm-none-eabi/4.5.2/../../../../arm-none-eabi/lib/thumb2\libc.a(lib_a-reallocr.o)
 .debug_frame   0x00000000       0x3c c:/program files/raisonance/ride/arm-gcc/bin/../lib/gcc/arm-none-eabi/4.5.2/../../../../arm-none-eabi/lib/thumb2\libc.a(lib_a-reallocr.o)
 .text          0x00000000      0x118 c:/program files/raisonance/ride/arm-gcc/bin/../lib/gcc/arm-none-eabi/4.5.2/../../../../arm-none-eabi/lib/thumb2\libc.a(lib_a-reent.o)
 .data          0x00000000        0x0 c:/program files/raisonance/ride/arm-gcc/bin/../lib/gcc/arm-none-eabi/4.5.2/../../../../arm-none-eabi/lib/thumb2\libc.a(lib_a-reent.o)
 .bss           0x00000000        0x0 c:/program files/raisonance/ride/arm-gcc/bin/../lib/gcc/arm-none-eabi/4.5.2/../../../../arm-none-eabi/lib/thumb2\libc.a(lib_a-reent.o)
 .ARM.attributes
                0x00000000       0x29 c:/program files/raisonance/ride/arm-gcc/bin/../lib/gcc/arm-none-eabi/4.5.2/../../../../arm-none-eabi/lib/thumb2\libc.a(lib_a-reent.o)
 .debug_frame   0x00000000       0x68 c:/program files/raisonance/ride/arm-gcc/bin/../lib/gcc/arm-none-eabi/4.5.2/../../../../arm-none-eabi/lib/thumb2\libc.a(lib_a-reent.o)
 .data          0x00000000        0x0 c:/program files/raisonance/ride/arm-gcc/bin/../lib/gcc/arm-none-eabi/4.5.2/../../../../arm-none-eabi/lib/thumb2\libm.a(lib_a-w_sqrt.o)
 .bss           0x00000000        0x0 c:/program files/raisonance/ride/arm-gcc/bin/../lib/gcc/arm-none-eabi/4.5.2/../../../../arm-none-eabi/lib/thumb2\libm.a(lib_a-w_sqrt.o)
 .ARM.attributes
                0x00000000       0x29 c:/program files/raisonance/ride/arm-gcc/bin/../lib/gcc/arm-none-eabi/4.5.2/../../../../arm-none-eabi/lib/thumb2\libm.a(lib_a-w_sqrt.o)
 .debug_frame   0x00000000       0x38 c:/program files/raisonance/ride/arm-gcc/bin/../lib/gcc/arm-none-eabi/4.5.2/../../../../arm-none-eabi/lib/thumb2\libm.a(lib_a-w_sqrt.o)
 .data          0x00000000        0x0 c:/program files/raisonance/ride/arm-gcc/bin/../lib/gcc/arm-none-eabi/4.5.2/../../../../arm-none-eabi/lib/thumb2\libm.a(lib_a-e_sqrt.o)
 .bss           0x00000000        0x0 c:/program files/raisonance/ride/arm-gcc/bin/../lib/gcc/arm-none-eabi/4.5.2/../../../../arm-none-eabi/lib/thumb2\libm.a(lib_a-e_sqrt.o)
 .ARM.attributes
                0x00000000       0x29 c:/program files/raisonance/ride/arm-gcc/bin/../lib/gcc/arm-none-eabi/4.5.2/../../../../arm-none-eabi/lib/thumb2\libm.a(lib_a-e_sqrt.o)
 .debug_frame   0x00000000       0x34 c:/program files/raisonance/ride/arm-gcc/bin/../lib/gcc/arm-none-eabi/4.5.2/../../../../arm-none-eabi/lib/thumb2\libm.a(lib_a-e_sqrt.o)
 .text          0x00000000        0x0 c:/program files/raisonance/ride/arm-gcc/bin/../lib/gcc/arm-none-eabi/4.5.2/../../../../arm-none-eabi/lib/thumb2\libm.a(lib_a-s_lib_ver.o)
 .bss           0x00000000        0x0 c:/program files/raisonance/ride/arm-gcc/bin/../lib/gcc/arm-none-eabi/4.5.2/../../../../arm-none-eabi/lib/thumb2\libm.a(lib_a-s_lib_ver.o)
 .ARM.attributes
                0x00000000       0x29 c:/program files/raisonance/ride/arm-gcc/bin/../lib/gcc/arm-none-eabi/4.5.2/../../../../arm-none-eabi/lib/thumb2\libm.a(lib_a-s_lib_ver.o)
 .data          0x00000000        0x0 c:/program files/raisonance/ride/arm-gcc/bin/../lib/gcc/arm-none-eabi/4.5.2/../../../../arm-none-eabi/lib/thumb2\libm.a(lib_a-s_matherr.o)
 .bss           0x00000000        0x0 c:/program files/raisonance/ride/arm-gcc/bin/../lib/gcc/arm-none-eabi/4.5.2/../../../../arm-none-eabi/lib/thumb2\libm.a(lib_a-s_matherr.o)
 .ARM.attributes
                0x00000000       0x29 c:/program files/raisonance/ride/arm-gcc/bin/../lib/gcc/arm-none-eabi/4.5.2/../../../../arm-none-eabi/lib/thumb2\libm.a(lib_a-s_matherr.o)
 .debug_frame   0x00000000       0x20 c:/program files/raisonance/ride/arm-gcc/bin/../lib/gcc/arm-none-eabi/4.5.2/../../../../arm-none-eabi/lib/thumb2\libm.a(lib_a-s_matherr.o)
 .text          0x00000000        0x0 C:\Program Files\Raisonance\Ride\Lib\ARM\std_sbrk_thumb.lib(sbrk.o)
 .data          0x00000000        0x0 C:\Program Files\Raisonance\Ride\Lib\ARM\std_sbrk_thumb.lib(sbrk.o)
 .data          0x00000000        0x0 c:/program files/raisonance/ride/arm-gcc/bin/../lib/gcc/arm-none-eabi/4.5.2/../../../../arm-none-eabi/lib/thumb2\libc.a(lib_a-errno.o)
 .bss           0x00000000        0x0 c:/program files/raisonance/ride/arm-gcc/bin/../lib/gcc/arm-none-eabi/4.5.2/../../../../arm-none-eabi/lib/thumb2\libc.a(lib_a-errno.o)
 .ARM.attributes
                0x00000000       0x29 c:/program files/raisonance/ride/arm-gcc/bin/../lib/gcc/arm-none-eabi/4.5.2/../../../../arm-none-eabi/lib/thumb2\libc.a(lib_a-errno.o)
 .debug_frame   0x00000000       0x20 c:/program files/raisonance/ride/arm-gcc/bin/../lib/gcc/arm-none-eabi/4.5.2/../../../../arm-none-eabi/lib/thumb2\libc.a(lib_a-errno.o)
 .data          0x00000000        0x0 c:/program files/raisonance/ride/arm-gcc/bin/../lib/gcc/arm-none-eabi/4.5.2/thumb2\libgcc.a(_udivsi3.o)
 .bss           0x00000000        0x0 c:/program files/raisonance/ride/arm-gcc/bin/../lib/gcc/arm-none-eabi/4.5.2/thumb2\libgcc.a(_udivsi3.o)
 .debug_frame   0x00000000       0x20 c:/program files/raisonance/ride/arm-gcc/bin/../lib/gcc/arm-none-eabi/4.5.2/thumb2\libgcc.a(_udivsi3.o)
 .ARM.attributes
                0x00000000       0x1b c:/program files/raisonance/ride/arm-gcc/bin/../lib/gcc/arm-none-eabi/4.5.2/thumb2\libgcc.a(_udivsi3.o)
 .data          0x00000000        0x0 c:/program files/raisonance/ride/arm-gcc/bin/../lib/gcc/arm-none-eabi/4.5.2/thumb2\libgcc.a(_dvmd_tls.o)
 .bss           0x00000000        0x0 c:/program files/raisonance/ride/arm-gcc/bin/../lib/gcc/arm-none-eabi/4.5.2/thumb2\libgcc.a(_dvmd_tls.o)
 .ARM.attributes
                0x00000000       0x1b c:/program files/raisonance/ride/arm-gcc/bin/../lib/gcc/arm-none-eabi/4.5.2/thumb2\libgcc.a(_dvmd_tls.o)
 .data          0x00000000        0x0 c:/program files/raisonance/ride/arm-gcc/bin/../lib/gcc/arm-none-eabi/4.5.2/thumb2\libgcc.a(_arm_addsubdf3.o)
 .bss           0x00000000        0x0 c:/program files/raisonance/ride/arm-gcc/bin/../lib/gcc/arm-none-eabi/4.5.2/thumb2\libgcc.a(_arm_addsubdf3.o)
 .ARM.attributes
                0x00000000       0x1b c:/program files/raisonance/ride/arm-gcc/bin/../lib/gcc/arm-none-eabi/4.5.2/thumb2\libgcc.a(_arm_addsubdf3.o)
 .data          0x00000000        0x0 c:/program files/raisonance/ride/arm-gcc/bin/../lib/gcc/arm-none-eabi/4.5.2/thumb2\libgcc.a(_arm_muldivdf3.o)
 .bss           0x00000000        0x0 c:/program files/raisonance/ride/arm-gcc/bin/../lib/gcc/arm-none-eabi/4.5.2/thumb2\libgcc.a(_arm_muldivdf3.o)
 .ARM.attributes
                0x00000000       0x1b c:/program files/raisonance/ride/arm-gcc/bin/../lib/gcc/arm-none-eabi/4.5.2/thumb2\libgcc.a(_arm_muldivdf3.o)
 .data          0x00000000        0x0 c:/program files/raisonance/ride/arm-gcc/bin/../lib/gcc/arm-none-eabi/4.5.2/thumb2\libgcc.a(_arm_cmpdf2.o)
 .bss           0x00000000        0x0 c:/program files/raisonance/ride/arm-gcc/bin/../lib/gcc/arm-none-eabi/4.5.2/thumb2\libgcc.a(_arm_cmpdf2.o)
 .ARM.attributes
                0x00000000       0x1b c:/program files/raisonance/ride/arm-gcc/bin/../lib/gcc/arm-none-eabi/4.5.2/thumb2\libgcc.a(_arm_cmpdf2.o)
 .data          0x00000000        0x0 c:/program files/raisonance/ride/arm-gcc/bin/../lib/gcc/arm-none-eabi/4.5.2/thumb2\libgcc.a(_arm_fixdfsi.o)
 .bss           0x00000000        0x0 c:/program files/raisonance/ride/arm-gcc/bin/../lib/gcc/arm-none-eabi/4.5.2/thumb2\libgcc.a(_arm_fixdfsi.o)
 .ARM.attributes
                0x00000000       0x1b c:/program files/raisonance/ride/arm-gcc/bin/../lib/gcc/arm-none-eabi/4.5.2/thumb2\libgcc.a(_arm_fixdfsi.o)
 .data          0x00000000        0x0 c:/program files/raisonance/ride/arm-gcc/bin/../lib/gcc/arm-none-eabi/4.5.2/thumb2\libgcc.a(_arm_fixunsdfsi.o)
 .bss           0x00000000        0x0 c:/program files/raisonance/ride/arm-gcc/bin/../lib/gcc/arm-none-eabi/4.5.2/thumb2\libgcc.a(_arm_fixunsdfsi.o)
 .ARM.attributes
                0x00000000       0x1b c:/program files/raisonance/ride/arm-gcc/bin/../lib/gcc/arm-none-eabi/4.5.2/thumb2\libgcc.a(_arm_fixunsdfsi.o)
 .data          0x00000000        0x0 c:/program files/raisonance/ride/arm-gcc/bin/../lib/gcc/arm-none-eabi/4.5.2/thumb2\libgcc.a(_arm_addsubsf3.o)
 .bss           0x00000000        0x0 c:/program files/raisonance/ride/arm-gcc/bin/../lib/gcc/arm-none-eabi/4.5.2/thumb2\libgcc.a(_arm_addsubsf3.o)
 .ARM.attributes
                0x00000000       0x1b c:/program files/raisonance/ride/arm-gcc/bin/../lib/gcc/arm-none-eabi/4.5.2/thumb2\libgcc.a(_arm_addsubsf3.o)
 .data          0x00000000        0x0 c:/program files/raisonance/ride/arm-gcc/bin/../lib/gcc/arm-none-eabi/4.5.2/thumb2\libgcc.a(_arm_muldivsf3.o)
 .bss           0x00000000        0x0 c:/program files/raisonance/ride/arm-gcc/bin/../lib/gcc/arm-none-eabi/4.5.2/thumb2\libgcc.a(_arm_muldivsf3.o)
 .ARM.attributes
                0x00000000       0x1b c:/program files/raisonance/ride/arm-gcc/bin/../lib/gcc/arm-none-eabi/4.5.2/thumb2\libgcc.a(_arm_muldivsf3.o)
 .data          0x00000000        0x0 c:/program files/raisonance/ride/arm-gcc/bin/../lib/gcc/arm-none-eabi/4.5.2/thumb2\libgcc.a(_arm_cmpsf2.o)
 .bss           0x00000000        0x0 c:/program files/raisonance/ride/arm-gcc/bin/../lib/gcc/arm-none-eabi/4.5.2/thumb2\libgcc.a(_arm_cmpsf2.o)
 .ARM.attributes
                0x00000000       0x1b c:/program files/raisonance/ride/arm-gcc/bin/../lib/gcc/arm-none-eabi/4.5.2/thumb2\libgcc.a(_arm_cmpsf2.o)
 .data          0x00000000        0x0 c:/program files/raisonance/ride/arm-gcc/bin/../lib/gcc/arm-none-eabi/4.5.2/thumb2\libgcc.a(_arm_fixsfsi.o)
 .bss           0x00000000        0x0 c:/program files/raisonance/ride/arm-gcc/bin/../lib/gcc/arm-none-eabi/4.5.2/thumb2\libgcc.a(_arm_fixsfsi.o)
 .ARM.attributes
                0x00000000       0x1b c:/program files/raisonance/ride/arm-gcc/bin/../lib/gcc/arm-none-eabi/4.5.2/thumb2\libgcc.a(_arm_fixsfsi.o)
 .data          0x00000000        0x0 c:/program files/raisonance/ride/arm-gcc/bin/../lib/gcc/arm-none-eabi/4.5.2/thumb2\libgcc.a(_arm_fixunssfsi.o)
 .bss           0x00000000        0x0 c:/program files/raisonance/ride/arm-gcc/bin/../lib/gcc/arm-none-eabi/4.5.2/thumb2\libgcc.a(_arm_fixunssfsi.o)
 .ARM.attributes
                0x00000000       0x1b c:/program files/raisonance/ride/arm-gcc/bin/../lib/gcc/arm-none-eabi/4.5.2/thumb2\libgcc.a(_arm_fixunssfsi.o)
 .data          0x00000000        0x0 c:/program files/raisonance/ride/arm-gcc/bin/../lib/gcc/arm-none-eabi/4.5.2/thumb2\libgcc.a(_aeabi_uldivmod.o)
 .bss           0x00000000        0x0 c:/program files/raisonance/ride/arm-gcc/bin/../lib/gcc/arm-none-eabi/4.5.2/thumb2\libgcc.a(_aeabi_uldivmod.o)
 .ARM.attributes
                0x00000000       0x1b c:/program files/raisonance/ride/arm-gcc/bin/../lib/gcc/arm-none-eabi/4.5.2/thumb2\libgcc.a(_aeabi_uldivmod.o)
 .data          0x00000000        0x0 c:/program files/raisonance/ride/arm-gcc/bin/../lib/gcc/arm-none-eabi/4.5.2/thumb2\libgcc.a(bpabi.o)
 .bss           0x00000000        0x0 c:/program files/raisonance/ride/arm-gcc/bin/../lib/gcc/arm-none-eabi/4.5.2/thumb2\libgcc.a(bpabi.o)
 .ARM.attributes
                0x00000000       0x29 c:/program files/raisonance/ride/arm-gcc/bin/../lib/gcc/arm-none-eabi/4.5.2/thumb2\libgcc.a(bpabi.o)
 .debug_frame   0x00000000       0x50 c:/program files/raisonance/ride/arm-gcc/bin/../lib/gcc/arm-none-eabi/4.5.2/thumb2\libgcc.a(bpabi.o)
 .data          0x00000000        0x0 c:/program files/raisonance/ride/arm-gcc/bin/../lib/gcc/arm-none-eabi/4.5.2/thumb2\libgcc.a(_divdi3.o)
 .bss           0x00000000        0x0 c:/program files/raisonance/ride/arm-gcc/bin/../lib/gcc/arm-none-eabi/4.5.2/thumb2\libgcc.a(_divdi3.o)
 .ARM.extab     0x00000000        0x0 c:/program files/raisonance/ride/arm-gcc/bin/../lib/gcc/arm-none-eabi/4.5.2/thumb2\libgcc.a(_divdi3.o)
 .ARM.exidx     0x00000000        0x8 c:/program files/raisonance/ride/arm-gcc/bin/../lib/gcc/arm-none-eabi/4.5.2/thumb2\libgcc.a(_divdi3.o)
 .ARM.attributes
                0x00000000       0x29 c:/program files/raisonance/ride/arm-gcc/bin/../lib/gcc/arm-none-eabi/4.5.2/thumb2\libgcc.a(_divdi3.o)
 .debug_frame   0x00000000       0x3c c:/program files/raisonance/ride/arm-gcc/bin/../lib/gcc/arm-none-eabi/4.5.2/thumb2\libgcc.a(_divdi3.o)
 .data          0x00000000        0x0 c:/program files/raisonance/ride/arm-gcc/bin/../lib/gcc/arm-none-eabi/4.5.2/thumb2\libgcc.a(_udivdi3.o)
 .bss           0x00000000        0x0 c:/program files/raisonance/ride/arm-gcc/bin/../lib/gcc/arm-none-eabi/4.5.2/thumb2\libgcc.a(_udivdi3.o)
 .ARM.extab     0x00000000        0x0 c:/program files/raisonance/ride/arm-gcc/bin/../lib/gcc/arm-none-eabi/4.5.2/thumb2\libgcc.a(_udivdi3.o)
 .ARM.exidx     0x00000000        0x8 c:/program files/raisonance/ride/arm-gcc/bin/../lib/gcc/arm-none-eabi/4.5.2/thumb2\libgcc.a(_udivdi3.o)
 .ARM.attributes
                0x00000000       0x29 c:/program files/raisonance/ride/arm-gcc/bin/../lib/gcc/arm-none-eabi/4.5.2/thumb2\libgcc.a(_udivdi3.o)
 .debug_frame   0x00000000       0x3c c:/program files/raisonance/ride/arm-gcc/bin/../lib/gcc/arm-none-eabi/4.5.2/thumb2\libgcc.a(_udivdi3.o)

Memory Configuration

Name             Origin             Length             Attributes
RAM              0x20000000         0x0000c000         xrw
FLASH            0x08000000         0x00040000         xr
STARTFLASH       0x00000000         0x00000000         xr
CRPPATCH         0x00000000         0x00000000         r
FLASHPATCH       0x00000000         0x00000000         r
ENDFLASH         0x00000000         0x00000000         xr
FLASHB1          0x00000000         0x00000000         xr
EXTMEMB0         0x00000000         0x00000000         xr
EXTMEMB1         0x00000000         0x00000000         xr
EXTMEMB2         0x00000000         0x00000000         xr
EXTMEMB3         0x00000000         0x00000000         xr
*default*        0x00000000         0xffffffff

Linker script and memory map

LOAD D:\svn\stm32\stm32_high\sw\prj\RIDE\all_demo\vs1003b.o
LOAD D:\svn\stm32\stm32_high\sw\prj\RIDE\all_demo\adc.o
LOAD D:\svn\stm32\stm32_high\sw\prj\RIDE\all_demo\at24c02.o
LOAD D:\svn\stm32\stm32_high\sw\prj\RIDE\all_demo\buzzer.o
LOAD D:\svn\stm32\stm32_high\sw\prj\RIDE\all_demo\can.o
LOAD D:\svn\stm32\stm32_high\sw\prj\RIDE\all_demo\dac.o
LOAD D:\svn\stm32\stm32_high\sw\prj\RIDE\all_demo\diskio.o
LOAD D:\svn\stm32\stm32_high\sw\prj\RIDE\all_demo\ff.o
LOAD D:\svn\stm32\stm32_high\sw\prj\RIDE\all_demo\font.o
LOAD D:\svn\stm32\stm32_high\sw\prj\RIDE\all_demo\hw_config.o
LOAD D:\svn\stm32\stm32_high\sw\prj\RIDE\all_demo\icon.o
LOAD D:\svn\stm32\stm32_high\sw\prj\RIDE\all_demo\iic.o
LOAD D:\svn\stm32\stm32_high\sw\prj\RIDE\all_demo\key.o
LOAD D:\svn\stm32\stm32_high\sw\prj\RIDE\all_demo\lcd28.o
LOAD D:\svn\stm32\stm32_high\sw\prj\RIDE\all_demo\lcd32.o
LOAD D:\svn\stm32\stm32_high\sw\prj\RIDE\all_demo\lcd43.o
LOAD D:\svn\stm32\stm32_high\sw\prj\RIDE\all_demo\lcd70.o
LOAD D:\svn\stm32\stm32_high\sw\prj\RIDE\all_demo\lcd1602.o
LOAD D:\svn\stm32\stm32_high\sw\prj\RIDE\all_demo\lcd12864.o
LOAD D:\svn\stm32\stm32_high\sw\prj\RIDE\all_demo\lcd.o
LOAD D:\svn\stm32\stm32_high\sw\prj\RIDE\all_demo\led.o
LOAD D:\svn\stm32\stm32_high\sw\prj\RIDE\all_demo\main.o
LOAD D:\svn\stm32\stm32_high\sw\prj\RIDE\all_demo\mmc_sd.o
LOAD D:\svn\stm32\stm32_high\sw\prj\RIDE\all_demo\nrf24l01.o
LOAD D:\svn\stm32\stm32_high\sw\prj\RIDE\all_demo\queue.o
LOAD D:\svn\stm32\stm32_high\sw\prj\RIDE\all_demo\rs485.o
LOAD D:\svn\stm32\stm32_high\sw\prj\RIDE\all_demo\rtc.o
LOAD D:\svn\stm32\stm32_high\sw\prj\RIDE\all_demo\spi.o
LOAD D:\svn\stm32\stm32_high\sw\prj\RIDE\all_demo\stm32f10x_it.o
LOAD D:\svn\stm32\stm32_high\sw\prj\RIDE\all_demo\timer.o
LOAD D:\svn\stm32\stm32_high\sw\prj\RIDE\all_demo\touch.o
LOAD D:\svn\stm32\stm32_high\sw\prj\RIDE\all_demo\usart.o
LOAD D:\svn\stm32\stm32_high\sw\prj\RIDE\all_demo\usb_desc.o
LOAD D:\svn\stm32\stm32_high\sw\prj\RIDE\all_demo\usb_istr.o
LOAD D:\svn\stm32\stm32_high\sw\prj\RIDE\all_demo\usb_prop.o
LOAD D:\svn\stm32\stm32_high\sw\prj\RIDE\all_demo\usb_pwr.o
LOAD D:\svn\stm32\stm32_high\sw\prj\RIDE\all_demo\startup_stm32f10x_hd.o
LOAD D:\svn\stm32\stm32_high\sw\prj\RIDE\all_demo\system_stm32f10x.o
LOAD D:\svn\stm32\stm32_high\sw\prj\RIDE\all_demo\usb_sil.o
LOAD D:\svn\stm32\stm32_high\sw\prj\RIDE\all_demo\otgd_fs_cal.o
LOAD D:\svn\stm32\stm32_high\sw\prj\RIDE\all_demo\otgd_fs_dev.o
LOAD D:\svn\stm32\stm32_high\sw\prj\RIDE\all_demo\otgd_fs_int.o
LOAD D:\svn\stm32\stm32_high\sw\prj\RIDE\all_demo\otgd_fs_pcd.o
LOAD D:\svn\stm32\stm32_high\sw\prj\RIDE\all_demo\usb_core.o
LOAD D:\svn\stm32\stm32_high\sw\prj\RIDE\all_demo\usb_init.o
LOAD D:\svn\stm32\stm32_high\sw\prj\RIDE\all_demo\usb_int.o
LOAD D:\svn\stm32\stm32_high\sw\prj\RIDE\all_demo\usb_mem.o
LOAD D:\svn\stm32\stm32_high\sw\prj\RIDE\all_demo\usb_regs.o
LOAD D:\svn\stm32\stm32_high\sw\prj\RIDE\all_demo\stm32f10x_wwdg.o
LOAD D:\svn\stm32\stm32_high\sw\prj\RIDE\all_demo\misc.o
LOAD D:\svn\stm32\stm32_high\sw\prj\RIDE\all_demo\stm32f10x_adc.o
LOAD D:\svn\stm32\stm32_high\sw\prj\RIDE\all_demo\stm32f10x_bkp.o
LOAD D:\svn\stm32\stm32_high\sw\prj\RIDE\all_demo\stm32f10x_can.o
LOAD D:\svn\stm32\stm32_high\sw\prj\RIDE\all_demo\stm32f10x_cec.o
LOAD D:\svn\stm32\stm32_high\sw\prj\RIDE\all_demo\stm32f10x_crc.o
LOAD D:\svn\stm32\stm32_high\sw\prj\RIDE\all_demo\stm32f10x_dac.o
LOAD D:\svn\stm32\stm32_high\sw\prj\RIDE\all_demo\stm32f10x_dbgmcu.o
LOAD D:\svn\stm32\stm32_high\sw\prj\RIDE\all_demo\stm32f10x_dma.o
LOAD D:\svn\stm32\stm32_high\sw\prj\RIDE\all_demo\stm32f10x_exti.o
LOAD D:\svn\stm32\stm32_high\sw\prj\RIDE\all_demo\stm32f10x_flash.o
LOAD D:\svn\stm32\stm32_high\sw\prj\RIDE\all_demo\stm32f10x_fsmc.o
LOAD D:\svn\stm32\stm32_high\sw\prj\RIDE\all_demo\stm32f10x_gpio.o
LOAD D:\svn\stm32\stm32_high\sw\prj\RIDE\all_demo\stm32f10x_i2c.o
LOAD D:\svn\stm32\stm32_high\sw\prj\RIDE\all_demo\stm32f10x_iwdg.o
LOAD D:\svn\stm32\stm32_high\sw\prj\RIDE\all_demo\stm32f10x_pwr.o
LOAD D:\svn\stm32\stm32_high\sw\prj\RIDE\all_demo\stm32f10x_rcc.o
LOAD D:\svn\stm32\stm32_high\sw\prj\RIDE\all_demo\stm32f10x_rtc.o
LOAD D:\svn\stm32\stm32_high\sw\prj\RIDE\all_demo\stm32f10x_sdio.o
LOAD D:\svn\stm32\stm32_high\sw\prj\RIDE\all_demo\stm32f10x_spi.o
LOAD D:\svn\stm32\stm32_high\sw\prj\RIDE\all_demo\stm32f10x_tim.o
LOAD D:\svn\stm32\stm32_high\sw\prj\RIDE\all_demo\stm32f10x_usart.o
START GROUP
LOAD C:\Program Files\Raisonance\Ride\Lib\ARM\std_sbrk_thumb.lib
LOAD C:\Program Files\Raisonance\Ride\Lib\ARM\smallprintf_thumb.a
LOAD c:/program files/raisonance/ride/arm-gcc/bin/../lib/gcc/arm-none-eabi/4.5.2/../../../../arm-none-eabi/lib/thumb2\libc.a
LOAD c:/program files/raisonance/ride/arm-gcc/bin/../lib/gcc/arm-none-eabi/4.5.2/../../../../arm-none-eabi/lib/thumb2\libm.a
END GROUP
                0x00000400                __Stack_Size = 0x400
                0x00000400                PROVIDE (_Stack_Size, __Stack_Size)
                0x2000bc00                __Stack_Init = (_estack - __Stack_Size)
                0x2000bc00                PROVIDE (_Stack_Init, __Stack_Init)
                0x00000100                _Minimum_Stack_Size = 0x100
                0x00000000                PROVIDE (Undefined_Handler, 0x0)
                0x00000000                PROVIDE (SWI_Handler, 0x0)
                0x00000000                PROVIDE (IRQ_Handler, 0x0)
                0x00000000                PROVIDE (Prefetch_Handler, 0x0)
                0x00000000                PROVIDE (Abort_Handler, 0x0)
                0x00000000                PROVIDE (FIQ_Handler, 0x0)
                0x00000000                PROVIDE (NMIException, 0x0)
                0x00000000                PROVIDE (NMI_Handler, 0x0)
                0x00000000                PROVIDE (HardFaultException, 0x0)
                0x00000000                PROVIDE (HardFault_Handler, 0x0)
                0x00000000                PROVIDE (MemManageException, 0x0)
                0x00000000                PROVIDE (MemManage_Handler, 0x0)
                0x00000000                PROVIDE (BusFaultException, 0x0)
                0x00000000                PROVIDE (BusFault_Handler, 0x0)
                0x00000000                PROVIDE (UsageFaultException, 0x0)
                0x00000000                PROVIDE (UsageFault_Handler, 0x0)
                0x00000000                PROVIDE (SVCHandler, 0x0)
                0x00000000                PROVIDE (SVC_Handler, 0x0)
                0x00000000                PROVIDE (DebugMonitor, 0x0)
                0x00000000                PROVIDE (DebugMon_Handler, 0x0)
                0x00000000                PROVIDE (PendSVC, 0x0)
                0x00000000                PROVIDE (PendSV_Handler, 0x0)
                0x00000000                PROVIDE (SysTickHandler, 0x0)
                0x00000000                PROVIDE (SysTick_Handler, 0x0)
                0x00000000                PROVIDE (WWDG_IRQHandler, 0x0)
                0x00000000                PROVIDE (PVD_IRQHandler, 0x0)
                0x00000000                PROVIDE (TAMPER_IRQHandler, 0x0)
                0x00000000                PROVIDE (RTC_IRQHandler, 0x0)
                0x00000000                PROVIDE (FLASH_IRQHandler, 0x0)
                0x00000000                PROVIDE (RCC_IRQHandler, 0x0)
                0x00000000                PROVIDE (EXTI0_IRQHandler, 0x0)
                0x00000000                PROVIDE (EXTI1_IRQHandler, 0x0)
                0x00000000                PROVIDE (EXTI2_IRQHandler, 0x0)
                0x00000000                PROVIDE (EXTI3_IRQHandler, 0x0)
                0x00000000                PROVIDE (EXTI4_IRQHandler, 0x0)
                0x00000000                PROVIDE (DMAChannel1_IRQHandler, 0x0)
                0x00000000                PROVIDE (DMAChannel2_IRQHandler, 0x0)
                0x00000000                PROVIDE (DMAChannel3_IRQHandler, 0x0)
                0x00000000                PROVIDE (DMAChannel4_IRQHandler, 0x0)
                0x00000000                PROVIDE (DMAChannel5_IRQHandler, 0x0)
                0x00000000                PROVIDE (DMAChannel6_IRQHandler, 0x0)
                0x00000000                PROVIDE (DMAChannel7_IRQHandler, 0x0)
                0x00000000                PROVIDE (DMA1_Channel1_IRQHandler, 0x0)
                0x00000000                PROVIDE (DMA1_Channel2_IRQHandler, 0x0)
                0x00000000                PROVIDE (DMA1_Channel3_IRQHandler, 0x0)
                0x00000000                PROVIDE (DMA1_Channel4_IRQHandler, 0x0)
                0x00000000                PROVIDE (DMA1_Channel5_IRQHandler, 0x0)
                0x00000000                PROVIDE (DMA1_Channel6_IRQHandler, 0x0)
                0x00000000                PROVIDE (DMA1_Channel7_IRQHandler, 0x0)
                0x00000000                PROVIDE (ADC_IRQHandler, 0x0)
                0x00000000                PROVIDE (ADC1_2_IRQHandler, 0x0)
                0x00000000                PROVIDE (USB_HP_CAN_TX_IRQHandler, 0x0)
                0x00000000                PROVIDE (USB_HP_CAN1_TX_IRQHandler, 0x0)
                0x00000000                PROVIDE (USB_LP_CAN_RX0_IRQHandler, 0x0)
                0x00000000                PROVIDE (USB_LP_CAN1_RX0_IRQHandler, 0x0)
                0x00000000                PROVIDE (CAN_RX1_IRQHandler, 0x0)
                0x00000000                PROVIDE (CAN1_RX1_IRQHandler, 0x0)
                0x00000000                PROVIDE (CAN_SCE_IRQHandler, 0x0)
                0x00000000                PROVIDE (CAN1_SCE_IRQHandler, 0x0)
                0x00000000                PROVIDE (EXTI9_5_IRQHandler, 0x0)
                0x00000000                PROVIDE (TIM1_BRK_IRQHandler, 0x0)
                0x00000000                PROVIDE (TIM1_UP_IRQHandler, 0x0)
                0x00000000                PROVIDE (TIM1_TRG_COM_IRQHandler, 0x0)
                0x00000000                PROVIDE (TIM1_CC_IRQHandler, 0x0)
                0x00000000                PROVIDE (TIM2_IRQHandler, 0x0)
                0x00000000                PROVIDE (TIM3_IRQHandler, 0x0)
                0x00000000                PROVIDE (TIM4_IRQHandler, 0x0)
                0x00000000                PROVIDE (I2C1_EV_IRQHandler, 0x0)
                0x00000000                PROVIDE (I2C1_ER_IRQHandler, 0x0)
                0x00000000                PROVIDE (I2C2_EV_IRQHandler, 0x0)
                0x00000000                PROVIDE (I2C2_ER_IRQHandler, 0x0)
                0x00000000                PROVIDE (SPI1_IRQHandler, 0x0)
                0x00000000                PROVIDE (SPI2_IRQHandler, 0x0)
                0x00000000                PROVIDE (USART1_IRQHandler, 0x0)
                0x00000000                PROVIDE (USART2_IRQHandler, 0x0)
                0x00000000                PROVIDE (USART3_IRQHandler, 0x0)
                0x00000000                PROVIDE (EXTI15_10_IRQHandler, 0x0)
                0x00000000                PROVIDE (RTCAlarm_IRQHandler, 0x0)
                0x00000000                PROVIDE (USBWakeUp_IRQHandler, 0x0)
                0x00000000                PROVIDE (TIM8_BRK_IRQHandler, 0x0)
                0x00000000                PROVIDE (TIM8_UP_IRQHandler, 0x0)
                0x00000000                PROVIDE (TIM8_TRG_COM_IRQHandler, 0x0)
                0x00000000                PROVIDE (TIM8_CC_IRQHandler, 0x0)
                0x00000000                PROVIDE (ADC3_IRQHandler, 0x0)
                0x00000000                PROVIDE (FSMC_IRQHandler, 0x0)
                0x00000000                PROVIDE (SDIO_IRQHandler, 0x0)
                0x00000000                PROVIDE (TIM5_IRQHandler, 0x0)
                0x00000000                PROVIDE (SPI3_IRQHandler, 0x0)
                0x00000000                PROVIDE (UART4_IRQHandler, 0x0)
                0x00000000                PROVIDE (UART5_IRQHandler, 0x0)
                0x00000000                PROVIDE (TIM6_IRQHandler, 0x0)
                0x00000000                PROVIDE (TIM7_IRQHandler, 0x0)
                0x00000000                PROVIDE (DMA2_Channel1_IRQHandler, 0x0)
                0x00000000                PROVIDE (DMA2_Channel2_IRQHandler, 0x0)
                0x00000000                PROVIDE (DMA2_Channel3_IRQHandler, 0x0)
                0x00000000                PROVIDE (DMA2_Channel4_5_IRQHandler, 0x0)
                0x42000000                PERIPH_BB_BASE = 0x42000000
                0x22000000                SRAM_BB_BASE = 0x22000000
                0x20000000                SRAM_BASE = 0x20000000
                0x40000000                PERIPH_BASE = 0x40000000
                0x40022000                PROVIDE (FLASH_BASE, 0x40022000)
                0x1ffff800                PROVIDE (OB_BASE, 0x1ffff800)
                0x40000000                APB1PERIPH_BASE = PERIPH_BASE
                0x40010000                APB2PERIPH_BASE = (PERIPH_BASE + 0x10000)
                0x40020000                AHBPERIPH_BASE = (PERIPH_BASE + 0x20000)
                0x40000000                PROVIDE (TIM2, (APB1PERIPH_BASE + 0x0))
                0x40000400                PROVIDE (TIM3, (APB1PERIPH_BASE + 0x400))
                0x40000800                PROVIDE (TIM4, (APB1PERIPH_BASE + 0x800))
                0x40002800                PROVIDE (RTC, (APB1PERIPH_BASE + 0x2800))
                0x40002c00                PROVIDE (WWDG, (APB1PERIPH_BASE + 0x2c00))
                0x40003000                PROVIDE (IWDG, (APB1PERIPH_BASE + 0x3000))
                0x40003800                PROVIDE (SPI2, (APB1PERIPH_BASE + 0x3800))
                0x40004400                PROVIDE (USART2, (APB1PERIPH_BASE + 0x4400))
                0x40004800                PROVIDE (USART3, (APB1PERIPH_BASE + 0x4800))
                0x40005400                PROVIDE (I2C1, (APB1PERIPH_BASE + 0x5400))
                0x40005800                PROVIDE (I2C2, (APB1PERIPH_BASE + 0x5800))
                0x40006400                PROVIDE (CAN, (APB1PERIPH_BASE + 0x6400))
                0x40006c00                PROVIDE (BKP, (APB1PERIPH_BASE + 0x6c00))
                0x40007000                PROVIDE (PWR, (APB1PERIPH_BASE + 0x7000))
                0x40010000                PROVIDE (AFIO, (APB2PERIPH_BASE + 0x0))
                0x40010400                PROVIDE (EXTI, (APB2PERIPH_BASE + 0x400))
                0x40010800                PROVIDE (GPIOA, (APB2PERIPH_BASE + 0x800))
                0x40010c00                PROVIDE (GPIOB, (APB2PERIPH_BASE + 0xc00))
                0x40011000                PROVIDE (GPIOC, (APB2PERIPH_BASE + 0x1000))
                0x40011400                PROVIDE (GPIOD, (APB2PERIPH_BASE + 0x1400))
                0x40011800                PROVIDE (GPIOE, (APB2PERIPH_BASE + 0x1800))
                0x40012400                PROVIDE (ADC1, (APB2PERIPH_BASE + 0x2400))
                0x40012800                PROVIDE (ADC2, (APB2PERIPH_BASE + 0x2800))
                0x40012c00                PROVIDE (TIM1, (APB2PERIPH_BASE + 0x2c00))
                0x40013000                PROVIDE (SPI1, (APB2PERIPH_BASE + 0x3000))
                0x40013800                PROVIDE (USART1, (APB2PERIPH_BASE + 0x3800))
                0x40020000                PROVIDE (DMA, (AHBPERIPH_BASE + 0x0))
                0x40020008                PROVIDE (DMA_Channel1, (AHBPERIPH_BASE + 0x8))
                0x4002001c                PROVIDE (DMA_Channel2, (AHBPERIPH_BASE + 0x1c))
                0x40020030                PROVIDE (DMA_Channel3, (AHBPERIPH_BASE + 0x30))
                0x40020044                PROVIDE (DMA_Channel4, (AHBPERIPH_BASE + 0x44))
                0x40020058                PROVIDE (DMA_Channel5, (AHBPERIPH_BASE + 0x58))
                0x4002006c                PROVIDE (DMA_Channel6, (AHBPERIPH_BASE + 0x6c))
                0x40020080                PROVIDE (DMA_Channel7, (AHBPERIPH_BASE + 0x80))
                0x40021000                PROVIDE (RCC, (AHBPERIPH_BASE + 0x1000))
                0xe000e000                SCS_BASE = 0xe000e000
                0xe000e010                PROVIDE (SysTick, (SCS_BASE + 0x10))
                0xe000e100                PROVIDE (NVIC, (SCS_BASE + 0x100))
                0xe000ed00                PROVIDE (SCB, (SCS_BASE + 0xd00))
                0x2000c000                _estack = 0x2000c000
                0x00000000                PROVIDE (___SK_limit___, 0x0)

.isr_vector     0x08000000      0x1e4
                0x08000000                . = ALIGN (0x4)
 *(.isr_vector)
 .isr_vector    0x08000000      0x1e4 D:\svn\stm32\stm32_high\sw\prj\RIDE\all_demo\startup_stm32f10x_hd.o
                0x08000000                g_pfnVectors
                0x080001e4                . = ALIGN (0x4)

.flash_start    0x00000000        0x0
                0x00000000                . = ALIGN (0x4)
 *(.flash_start)
 *(.flash_start.*)
                0x00000000                . = ALIGN (0x4)

.crp_patch      0x00000000        0x0
                0x00000000                . = ALIGN (0x4)
 *(.crp_patch)
                0x00000000                . = ALIGN (0x4)

.flashtext      0x080001e4        0x0
                0x080001e4                . = ALIGN (0x4)
 *(.flashtext)
                0x080001e4                . = ALIGN (0x4)

.text           0x080001e8    0x29a2c
                0x080001e8                . = ALIGN (0x4)
 *(.text)
 .text          0x080001e8      0x150 c:/program files/raisonance/ride/arm-gcc/bin/../lib/gcc/arm-none-eabi/4.5.2/../../../../arm-none-eabi/lib/thumb2\libc.a(lib_a-memcpy.o)
                0x080001e8                memcpy
 .text          0x08000338       0xb4 c:/program files/raisonance/ride/arm-gcc/bin/../lib/gcc/arm-none-eabi/4.5.2/../../../../arm-none-eabi/lib/thumb2\libc.a(lib_a-memset.o)
                0x08000338                memset
 .text          0x080003ec       0x60 c:/program files/raisonance/ride/arm-gcc/bin/../lib/gcc/arm-none-eabi/4.5.2/../../../../arm-none-eabi/lib/thumb2\libc.a(lib_a-strlen.o)
                0x080003ec                strlen
 .text          0x0800044c       0x4c c:/program files/raisonance/ride/arm-gcc/bin/../lib/gcc/arm-none-eabi/4.5.2/../../../../arm-none-eabi/lib/thumb2\libc.a(lib_a-vsprintf.o)
                0x0800044c                _vsprintf_r
                0x08000480                vsprintf
 .text          0x08000498     0x1640 c:/program files/raisonance/ride/arm-gcc/bin/../lib/gcc/arm-none-eabi/4.5.2/../../../../arm-none-eabi/lib/thumb2\libc.a(lib_a-svfprintf.o)
                0x08000498                _svfprintf_r
 .text          0x08001ad8      0xfe8 c:/program files/raisonance/ride/arm-gcc/bin/../lib/gcc/arm-none-eabi/4.5.2/../../../../arm-none-eabi/lib/thumb2\libc.a(lib_a-dtoa.o)
                0x08001c04                _dtoa_r
 .text          0x08002ac0       0xa0 c:/program files/raisonance/ride/arm-gcc/bin/../lib/gcc/arm-none-eabi/4.5.2/../../../../arm-none-eabi/lib/thumb2\libc.a(lib_a-locale.o)
                0x08002ac0                _setlocale_r
                0x08002b1c                __locale_charset
                0x08002b28                __locale_mb_cur_max
                0x08002b34                __locale_msgcharset
                0x08002b3c                __locale_cjk_lang
                0x08002b40                _localeconv_r
                0x08002b48                setlocale
                0x08002b58                localeconv
 .text          0x08002b60       0x20 c:/program files/raisonance/ride/arm-gcc/bin/../lib/gcc/arm-none-eabi/4.5.2/../../../../arm-none-eabi/lib/thumb2\libc.a(lib_a-malloc.o)
                0x08002b60                malloc
                0x08002b70                free
 .text          0x08002b80      0x57c c:/program files/raisonance/ride/arm-gcc/bin/../lib/gcc/arm-none-eabi/4.5.2/../../../../arm-none-eabi/lib/thumb2\libc.a(lib_a-mallocr.o)
                0x08002b80                _malloc_r
 .text          0x080030fc       0x8c c:/program files/raisonance/ride/arm-gcc/bin/../lib/gcc/arm-none-eabi/4.5.2/../../../../arm-none-eabi/lib/thumb2\libc.a(lib_a-memchr.o)
                0x080030fc                memchr
 .text          0x08003188        0x8 c:/program files/raisonance/ride/arm-gcc/bin/../lib/gcc/arm-none-eabi/4.5.2/../../../../arm-none-eabi/lib/thumb2\libc.a(lib_a-mlock.o)
                0x08003188                __malloc_lock
                0x0800318c                __malloc_unlock
 .text          0x08003190      0x91c c:/program files/raisonance/ride/arm-gcc/bin/../lib/gcc/arm-none-eabi/4.5.2/../../../../arm-none-eabi/lib/thumb2\libc.a(lib_a-mprec.o)
                0x08003190                _Balloc
                0x080031f8                _Bfree
                0x08003230                __multadd
                0x080032b4                __s2b
                0x0800334c                __hi0bits
                0x0800338c                __lo0bits
                0x080033f0                __i2b
                0x08003404                __multiply
                0x0800352c                __pow5mult
                0x080035d0                __lshift
                0x0800367c                __mcmp
                0x080036b8                __mdiff
                0x080037b0                __ulp
                0x080037f8                __b2d
                0x080038a4                __d2b
                0x0800396c                __ratio
                0x080039d4                _mprec_log10
                0x08003a08                __copybits
                0x08003a50                __any_on
 .text          0x08003aac       0x90 c:/program files/raisonance/ride/arm-gcc/bin/../lib/gcc/arm-none-eabi/4.5.2/../../../../arm-none-eabi/lib/thumb2\libc.a(lib_a-s_fpclassify.o)
                0x08003aac                __fpclassifyd
 .text          0x08003b3c       0x28 c:/program files/raisonance/ride/arm-gcc/bin/../lib/gcc/arm-none-eabi/4.5.2/../../../../arm-none-eabi/lib/thumb2\libc.a(lib_a-sbrkr.o)
                0x08003b3c                _sbrk_r
 .text          0x08003b64      0x1dc c:/program files/raisonance/ride/arm-gcc/bin/../lib/gcc/arm-none-eabi/4.5.2/../../../../arm-none-eabi/lib/thumb2\libc.a(lib_a-strcmp.o)
                0x08003b64                strcmp
 .text          0x08003d40      0xbe8 c:/program files/raisonance/ride/arm-gcc/bin/../lib/gcc/arm-none-eabi/4.5.2/../../../../arm-none-eabi/lib/thumb2\libc.a(lib_a-svfiprintf.o)
                0x08003d40                __ssprint_r
                0x08003e48                _svfiprintf_r
 .text          0x08004928       0x5c c:/program files/raisonance/ride/arm-gcc/bin/../lib/gcc/arm-none-eabi/4.5.2/../../../../arm-none-eabi/lib/thumb2\libc.a(lib_a-callocr.o)
                0x08004928                _calloc_r
 .text          0x08004984      0x240 c:/program files/raisonance/ride/arm-gcc/bin/../lib/gcc/arm-none-eabi/4.5.2/../../../../arm-none-eabi/lib/thumb2\libc.a(lib_a-freer.o)
                0x08004984                _malloc_trim_r
                0x08004a2c                _free_r
 .text          0x08004bc4       0xb4 c:/program files/raisonance/ride/arm-gcc/bin/../lib/gcc/arm-none-eabi/4.5.2/../../../../arm-none-eabi/lib/thumb2\libc.a(lib_a-memmove.o)
                0x08004bc4                memmove
 .text          0x08004c78      0x41c c:/program files/raisonance/ride/arm-gcc/bin/../lib/gcc/arm-none-eabi/4.5.2/../../../../arm-none-eabi/lib/thumb2\libc.a(lib_a-reallocr.o)
                0x08004c78                _realloc_r
 .text          0x08005094       0xac c:/program files/raisonance/ride/arm-gcc/bin/../lib/gcc/arm-none-eabi/4.5.2/../../../../arm-none-eabi/lib/thumb2\libm.a(lib_a-w_sqrt.o)
                0x08005094                sqrt
 .text          0x08005140      0x1c0 c:/program files/raisonance/ride/arm-gcc/bin/../lib/gcc/arm-none-eabi/4.5.2/../../../../arm-none-eabi/lib/thumb2\libm.a(lib_a-e_sqrt.o)
                0x08005140                __ieee754_sqrt
 .text          0x08005300        0x4 c:/program files/raisonance/ride/arm-gcc/bin/../lib/gcc/arm-none-eabi/4.5.2/../../../../arm-none-eabi/lib/thumb2\libm.a(lib_a-s_matherr.o)
                0x08005300                matherr
 .text          0x08005304        0xc c:/program files/raisonance/ride/arm-gcc/bin/../lib/gcc/arm-none-eabi/4.5.2/../../../../arm-none-eabi/lib/thumb2\libc.a(lib_a-errno.o)
                0x08005304                __errno
 .text          0x08005310      0x278 c:/program files/raisonance/ride/arm-gcc/bin/../lib/gcc/arm-none-eabi/4.5.2/thumb2\libgcc.a(_udivsi3.o)
                0x08005310                __aeabi_uidiv
                0x08005310                __udivsi3
                0x0800556c                __aeabi_uidivmod
 .text          0x08005588        0x4 c:/program files/raisonance/ride/arm-gcc/bin/../lib/gcc/arm-none-eabi/4.5.2/thumb2\libgcc.a(_dvmd_tls.o)
                0x08005588                __aeabi_idiv0
                0x08005588                __aeabi_ldiv0
 .text          0x0800558c      0x370 c:/program files/raisonance/ride/arm-gcc/bin/../lib/gcc/arm-none-eabi/4.5.2/thumb2\libgcc.a(_arm_addsubdf3.o)
                0x0800558c                __aeabi_drsub
                0x08005594                __aeabi_dsub
                0x08005594                __subdf3
                0x08005598                __aeabi_dadd
                0x08005598                __adddf3
                0x08005810                __floatunsidf
                0x08005810                __aeabi_ui2d
                0x08005830                __floatsidf
                0x08005830                __aeabi_i2d
                0x08005854                __aeabi_f2d
                0x08005854                __extendsfdf2
                0x08005890                __floatundidf
                0x08005890                __aeabi_ul2d
                0x080058a0                __floatdidf
                0x080058a0                __aeabi_l2d
 .text          0x080058fc      0x424 c:/program files/raisonance/ride/arm-gcc/bin/../lib/gcc/arm-none-eabi/4.5.2/thumb2\libgcc.a(_arm_muldivdf3.o)
                0x080058fc                __aeabi_dmul
                0x080058fc                __muldf3
                0x08005b50                __divdf3
                0x08005b50                __aeabi_ddiv
 .text          0x08005d20      0x110 c:/program files/raisonance/ride/arm-gcc/bin/../lib/gcc/arm-none-eabi/4.5.2/thumb2\libgcc.a(_arm_cmpdf2.o)
                0x08005d20                __gtdf2
                0x08005d20                __gedf2
                0x08005d28                __ltdf2
                0x08005d28                __ledf2
                0x08005d30                __nedf2
                0x08005d30                __eqdf2
                0x08005d30                __cmpdf2
                0x08005dac                __aeabi_cdrcmple
                0x08005dbc                __aeabi_cdcmpeq
                0x08005dbc                __aeabi_cdcmple
                0x08005dcc                __aeabi_dcmpeq
                0x08005de0                __aeabi_dcmplt
                0x08005df4                __aeabi_dcmple
                0x08005e08                __aeabi_dcmpge
                0x08005e1c                __aeabi_dcmpgt
 .text          0x08005e30       0x50 c:/program files/raisonance/ride/arm-gcc/bin/../lib/gcc/arm-none-eabi/4.5.2/thumb2\libgcc.a(_arm_fixdfsi.o)
                0x08005e30                __aeabi_d2iz
                0x08005e30                __fixdfsi
 .text          0x08005e80       0x40 c:/program files/raisonance/ride/arm-gcc/bin/../lib/gcc/arm-none-eabi/4.5.2/thumb2\libgcc.a(_arm_fixunsdfsi.o)
                0x08005e80                __aeabi_d2uiz
                0x08005e80                __fixunsdfsi
 .text          0x08005ec0      0x21c c:/program files/raisonance/ride/arm-gcc/bin/../lib/gcc/arm-none-eabi/4.5.2/thumb2\libgcc.a(_arm_addsubsf3.o)
                0x08005ec0                __aeabi_frsub
                0x08005ec8                __subsf3
                0x08005ec8                __aeabi_fsub
                0x08005ecc                __aeabi_fadd
                0x08005ecc                __addsf3
                0x0800602c                __aeabi_ui2f
                0x0800602c                __floatunsisf
                0x08006034                __aeabi_i2f
                0x08006034                __floatsisf
                0x08006050                __aeabi_ul2f
                0x08006050                __floatundisf
                0x08006060                __aeabi_l2f
                0x08006060                __floatdisf
 .text          0x080060dc      0x2a0 c:/program files/raisonance/ride/arm-gcc/bin/../lib/gcc/arm-none-eabi/4.5.2/thumb2\libgcc.a(_arm_muldivsf3.o)
                0x080060dc                __mulsf3
                0x080060dc                __aeabi_fmul
                0x08006244                __aeabi_fdiv
                0x08006244                __divsf3
 .text          0x0800637c       0xec c:/program files/raisonance/ride/arm-gcc/bin/../lib/gcc/arm-none-eabi/4.5.2/thumb2\libgcc.a(_arm_cmpsf2.o)
                0x0800637c                __gesf2
                0x0800637c                __gtsf2
                0x08006384                __lesf2
                0x08006384                __ltsf2
                0x0800638c                __nesf2
                0x0800638c                __eqsf2
                0x0800638c                __cmpsf2
                0x080063ec                __aeabi_cfrcmple
                0x080063f4                __aeabi_cfcmpeq
                0x080063f4                __aeabi_cfcmple
                0x08006404                __aeabi_fcmpeq
                0x08006418                __aeabi_fcmplt
                0x0800642c                __aeabi_fcmple
                0x08006440                __aeabi_fcmpge
                0x08006454                __aeabi_fcmpgt
 .text          0x08006468       0x4c c:/program files/raisonance/ride/arm-gcc/bin/../lib/gcc/arm-none-eabi/4.5.2/thumb2\libgcc.a(_arm_fixsfsi.o)
                0x08006468                __aeabi_f2iz
                0x08006468                __fixsfsi
 .text          0x080064b4       0x40 c:/program files/raisonance/ride/arm-gcc/bin/../lib/gcc/arm-none-eabi/4.5.2/thumb2\libgcc.a(_arm_fixunssfsi.o)
                0x080064b4                __fixunssfsi
                0x080064b4                __aeabi_f2uiz
 .text          0x080064f4       0x2c c:/program files/raisonance/ride/arm-gcc/bin/../lib/gcc/arm-none-eabi/4.5.2/thumb2\libgcc.a(_aeabi_uldivmod.o)
                0x080064f4                __aeabi_uldivmod
 .text          0x08006520       0x60 c:/program files/raisonance/ride/arm-gcc/bin/../lib/gcc/arm-none-eabi/4.5.2/thumb2\libgcc.a(bpabi.o)
                0x08006520                __gnu_ldivmod_helper
                0x08006550                __gnu_uldivmod_helper
 .text          0x08006580      0x360 c:/program files/raisonance/ride/arm-gcc/bin/../lib/gcc/arm-none-eabi/4.5.2/thumb2\libgcc.a(_divdi3.o)
                0x08006580                __divdi3
 .text          0x080068e0      0x308 c:/program files/raisonance/ride/arm-gcc/bin/../lib/gcc/arm-none-eabi/4.5.2/thumb2\libgcc.a(_udivdi3.o)
                0x080068e0                __udivdi3
 *(.text.*)
 .text.Vs1003_CMD_Write
                0x08006be8       0x44 D:\svn\stm32\stm32_high\sw\prj\RIDE\all_demo\vs1003b.o
                0x08006be8                Vs1003_CMD_Write
 .text.Vs1003SoftReset
                0x08006c2c       0x20 D:\svn\stm32\stm32_high\sw\prj\RIDE\all_demo\vs1003b.o
                0x08006c2c                Vs1003SoftReset
 .text.Vs1003_REG_Read
                0x08006c4c       0x50 D:\svn\stm32\stm32_high\sw\prj\RIDE\all_demo\vs1003b.o
                0x08006c4c                Vs1003_REG_Read
 .text.Vs1003_Init
                0x08006c9c      0x160 D:\svn\stm32\stm32_high\sw\prj\RIDE\all_demo\vs1003b.o
                0x08006c9c                Vs1003_Init
 .text.VS1003B_NeedData
                0x08006dfc       0x18 D:\svn\stm32\stm32_high\sw\prj\RIDE\all_demo\vs1003b.o
                0x08006dfc                VS1003B_NeedData
 .text.VS1003B_Fill2048Zero
                0x08006e14       0x4c D:\svn\stm32\stm32_high\sw\prj\RIDE\all_demo\vs1003b.o
                0x08006e14                VS1003B_Fill2048Zero
 .text.bsp_adc_gpio_init
                0x08006e60       0x80 D:\svn\stm32\stm32_high\sw\prj\RIDE\all_demo\adc.o
                0x08006e60                bsp_adc_gpio_init
 .text.bsp_adc_init
                0x08006ee0       0x94 D:\svn\stm32\stm32_high\sw\prj\RIDE\all_demo\adc.o
                0x08006ee0                bsp_adc_init
 .text.bsp_at24c02_gpio_init
                0x08006f74       0x4c D:\svn\stm32\stm32_high\sw\prj\RIDE\all_demo\at24c02.o
                0x08006f74                bsp_at24c02_gpio_init
 .text.AT24CXX_Init
                0x08006fc0        0x8 D:\svn\stm32\stm32_high\sw\prj\RIDE\all_demo\at24c02.o
                0x08006fc0                AT24CXX_Init
 .text.AT24CXX_ReadOneByte
                0x08006fc8       0x4c D:\svn\stm32\stm32_high\sw\prj\RIDE\all_demo\at24c02.o
                0x08006fc8                AT24CXX_ReadOneByte
 .text.AT24CXX_WriteOneByte
                0x08007014       0x3c D:\svn\stm32\stm32_high\sw\prj\RIDE\all_demo\at24c02.o
                0x08007014                AT24CXX_WriteOneByte
 .text.bsp_buzzer_gpio_init
                0x08007050       0x2c D:\svn\stm32\stm32_high\sw\prj\RIDE\all_demo\buzzer.o
                0x08007050                bsp_buzzer_gpio_init
 .text.bsp_buzzer_init
                0x0800707c        0x8 D:\svn\stm32\stm32_high\sw\prj\RIDE\all_demo\buzzer.o
                0x0800707c                bsp_buzzer_init
 .text.buzzer_on
                0x08007084       0x14 D:\svn\stm32\stm32_high\sw\prj\RIDE\all_demo\buzzer.o
                0x08007084                buzzer_on
 .text.buzzer_off
                0x08007098       0x14 D:\svn\stm32\stm32_high\sw\prj\RIDE\all_demo\buzzer.o
                0x08007098                buzzer_off
 .text.bsp_can_gpio_init
                0x080070ac       0x58 D:\svn\stm32\stm32_high\sw\prj\RIDE\all_demo\can.o
                0x080070ac                bsp_can_gpio_init
 .text.bsp_can_interrupt_init
                0x08007104       0x2c D:\svn\stm32\stm32_high\sw\prj\RIDE\all_demo\can.o
                0x08007104                bsp_can_interrupt_init
 .text.bsp_can_init
                0x08007130       0xa0 D:\svn\stm32\stm32_high\sw\prj\RIDE\all_demo\can.o
                0x08007130                bsp_can_init
 .text.can_polling
                0x080071d0      0x154 D:\svn\stm32\stm32_high\sw\prj\RIDE\all_demo\can.o
                0x080071d0                can_polling
 .text.can_interrupt
                0x08007324      0x118 D:\svn\stm32\stm32_high\sw\prj\RIDE\all_demo\can.o
                0x08007324                can_interrupt
 .text.disk_initialize
                0x0800743c       0x20 D:\svn\stm32\stm32_high\sw\prj\RIDE\all_demo\diskio.o
                0x0800743c                disk_initialize
 .text.disk_status
                0x0800745c        0x8 D:\svn\stm32\stm32_high\sw\prj\RIDE\all_demo\diskio.o
                0x0800745c                disk_status
 .text.disk_read
                0x08007464       0x30 D:\svn\stm32\stm32_high\sw\prj\RIDE\all_demo\diskio.o
                0x08007464                disk_read
 .text.disk_write
                0x08007494       0x30 D:\svn\stm32\stm32_high\sw\prj\RIDE\all_demo\diskio.o
                0x08007494                disk_write
 .text.disk_ioctl
                0x080074c4       0x60 D:\svn\stm32\stm32_high\sw\prj\RIDE\all_demo\diskio.o
                0x080074c4                disk_ioctl
 .text.get_fattime
                0x08007524        0x8 D:\svn\stm32\stm32_high\sw\prj\RIDE\all_demo\diskio.o
                0x08007524                get_fattime
 .text.mem_cpy  0x0800752c       0x1c D:\svn\stm32\stm32_high\sw\prj\RIDE\all_demo\ff.o
 .text.mem_set  0x08007548       0x14 D:\svn\stm32\stm32_high\sw\prj\RIDE\all_demo\ff.o
 .text.mem_cmp  0x0800755c       0x28 D:\svn\stm32\stm32_high\sw\prj\RIDE\all_demo\ff.o
 .text.clust2sect
                0x08007584       0x20 D:\svn\stm32\stm32_high\sw\prj\RIDE\all_demo\ff.o
 .text.get_fileinfo
                0x080075a4       0xd8 D:\svn\stm32\stm32_high\sw\prj\RIDE\all_demo\ff.o
 .text.validate
                0x0800767c       0x34 D:\svn\stm32\stm32_high\sw\prj\RIDE\all_demo\ff.o
 .text.check_fs
                0x080076b0       0x74 D:\svn\stm32\stm32_high\sw\prj\RIDE\all_demo\ff.o
 .text.auto_mount
                0x08007724      0x328 D:\svn\stm32\stm32_high\sw\prj\RIDE\all_demo\ff.o
 .text.move_window
                0x08007a4c       0x98 D:\svn\stm32\stm32_high\sw\prj\RIDE\all_demo\ff.o
 .text.get_fat  0x08007ae4      0x10c D:\svn\stm32\stm32_high\sw\prj\RIDE\all_demo\ff.o
 .text.dir_seek
                0x08007bf0       0xc4 D:\svn\stm32\stm32_high\sw\prj\RIDE\all_demo\ff.o
 .text.put_fat  0x08007cb4      0x118 D:\svn\stm32\stm32_high\sw\prj\RIDE\all_demo\ff.o
 .text.create_chain
                0x08007dcc       0xc0 D:\svn\stm32\stm32_high\sw\prj\RIDE\all_demo\ff.o
 .text.remove_chain
                0x08007e8c       0x80 D:\svn\stm32\stm32_high\sw\prj\RIDE\all_demo\ff.o
 .text.dir_next
                0x08007f0c      0x164 D:\svn\stm32\stm32_high\sw\prj\RIDE\all_demo\ff.o
 .text.follow_path
                0x08008070      0x250 D:\svn\stm32\stm32_high\sw\prj\RIDE\all_demo\ff.o
 .text.dir_register
                0x080082c0       0x80 D:\svn\stm32\stm32_high\sw\prj\RIDE\all_demo\ff.o
 .text.dir_read
                0x08008340       0x54 D:\svn\stm32\stm32_high\sw\prj\RIDE\all_demo\ff.o
 .text.sync     0x08008394       0xd8 D:\svn\stm32\stm32_high\sw\prj\RIDE\all_demo\ff.o
 .text.f_mount  0x0800846c       0x2c D:\svn\stm32\stm32_high\sw\prj\RIDE\all_demo\ff.o
                0x0800846c                f_mount
 .text.f_open   0x08008498      0x1a8 D:\svn\stm32\stm32_high\sw\prj\RIDE\all_demo\ff.o
                0x08008498                f_open
 .text.f_read   0x08008640      0x1d8 D:\svn\stm32\stm32_high\sw\prj\RIDE\all_demo\ff.o
                0x08008640                f_read
 .text.f_sync   0x08008818       0xbc D:\svn\stm32\stm32_high\sw\prj\RIDE\all_demo\ff.o
                0x08008818                f_sync
 .text.f_close  0x080088d4       0x18 D:\svn\stm32\stm32_high\sw\prj\RIDE\all_demo\ff.o
                0x080088d4                f_close
 .text.f_opendir
                0x080088ec       0x70 D:\svn\stm32\stm32_high\sw\prj\RIDE\all_demo\ff.o
                0x080088ec                f_opendir
 .text.f_readdir
                0x0800895c       0x68 D:\svn\stm32\stm32_high\sw\prj\RIDE\all_demo\ff.o
                0x0800895c                f_readdir
 .text.IntToUnicode
                0x080089c4       0x3c D:\svn\stm32\stm32_high\sw\prj\RIDE\all_demo\hw_config.o
 .text.Set_USBClock
                0x08008a00       0x18 D:\svn\stm32\stm32_high\sw\prj\RIDE\all_demo\hw_config.o
                0x08008a00                Set_USBClock
 .text.bsp_init_rcc
                0x08008a18      0x134 D:\svn\stm32\stm32_high\sw\prj\RIDE\all_demo\hw_config.o
                0x08008a18                bsp_init_rcc
 .text.Enter_LowPowerMode
                0x08008b4c        0x4 D:\svn\stm32\stm32_high\sw\prj\RIDE\all_demo\hw_config.o
                0x08008b4c                Enter_LowPowerMode
 .text.Leave_LowPowerMode
                0x08008b50       0x74 D:\svn\stm32\stm32_high\sw\prj\RIDE\all_demo\hw_config.o
                0x08008b50                Leave_LowPowerMode
 .text.USB_Cable_Config
                0x08008bc4       0x20 D:\svn\stm32\stm32_high\sw\prj\RIDE\all_demo\hw_config.o
                0x08008bc4                USB_Cable_Config
 .text.Get_SerialNum
                0x08008be4       0x3c D:\svn\stm32\stm32_high\sw\prj\RIDE\all_demo\hw_config.o
                0x08008be4                Get_SerialNum
 .text.bsp_init_gpio
                0x08008c20       0x34 D:\svn\stm32\stm32_high\sw\prj\RIDE\all_demo\hw_config.o
                0x08008c20                bsp_init_gpio
 .text.bsp_init_interrupt
                0x08008c54       0x58 D:\svn\stm32\stm32_high\sw\prj\RIDE\all_demo\hw_config.o
                0x08008c54                bsp_init_interrupt
 .text.delay_us
                0x08008cac       0x70 D:\svn\stm32\stm32_high\sw\prj\RIDE\all_demo\hw_config.o
                0x08008cac                delay_us
 .text.delay_ms
                0x08008d1c       0x10 D:\svn\stm32\stm32_high\sw\prj\RIDE\all_demo\hw_config.o
                0x08008d1c                delay_ms
 .text.IIC_delay_us
                0x08008d2c       0x28 D:\svn\stm32\stm32_high\sw\prj\RIDE\all_demo\iic.o
                0x08008d2c                IIC_delay_us
 .text.IIC1_Start
                0x08008d54       0x54 D:\svn\stm32\stm32_high\sw\prj\RIDE\all_demo\iic.o
                0x08008d54                IIC1_Start
 .text.IIC1_Stop
                0x08008da8       0x54 D:\svn\stm32\stm32_high\sw\prj\RIDE\all_demo\iic.o
                0x08008da8                IIC1_Stop
 .text.IIC1_Wait_Ack
                0x08008dfc       0x78 D:\svn\stm32\stm32_high\sw\prj\RIDE\all_demo\iic.o
                0x08008dfc                IIC1_Wait_Ack
 .text.IIC1_Ack
                0x08008e74       0x54 D:\svn\stm32\stm32_high\sw\prj\RIDE\all_demo\iic.o
                0x08008e74                IIC1_Ack
 .text.IIC1_NAck
                0x08008ec8       0x54 D:\svn\stm32\stm32_high\sw\prj\RIDE\all_demo\iic.o
                0x08008ec8                IIC1_NAck
 .text.IIC1_Send_Byte
                0x08008f1c       0x80 D:\svn\stm32\stm32_high\sw\prj\RIDE\all_demo\iic.o
                0x08008f1c                IIC1_Send_Byte
 .text.IIC1_Read_Byte
                0x08008f9c       0x78 D:\svn\stm32\stm32_high\sw\prj\RIDE\all_demo\iic.o
                0x08008f9c                IIC1_Read_Byte
 .text.register_exti_key_function
                0x08009014       0x10 D:\svn\stm32\stm32_high\sw\prj\RIDE\all_demo\key.o
                0x08009014                register_exti_key_function
 .text.bsp_key_gpio_init
                0x08009024       0xa8 D:\svn\stm32\stm32_high\sw\prj\RIDE\all_demo\key.o
                0x08009024                bsp_key_gpio_init
 .text.bsp_key_interrupt_init
                0x080090cc       0x70 D:\svn\stm32\stm32_high\sw\prj\RIDE\all_demo\key.o
                0x080090cc                bsp_key_interrupt_init
 .text.EXTI0_IRQHandler
                0x0800913c        0x4 D:\svn\stm32\stm32_high\sw\prj\RIDE\all_demo\key.o
                0x0800913c                EXTI0_IRQHandler
 .text.EXTI2_IRQHandler
                0x08009140        0x4 D:\svn\stm32\stm32_high\sw\prj\RIDE\all_demo\key.o
                0x08009140                EXTI2_IRQHandler
 .text.EXTI4_IRQHandler
                0x08009144       0x24 D:\svn\stm32\stm32_high\sw\prj\RIDE\all_demo\key.o
                0x08009144                EXTI4_IRQHandler
 .text.EXTI15_10_IRQHandler
                0x08009168        0x4 D:\svn\stm32\stm32_high\sw\prj\RIDE\all_demo\key.o
                0x08009168                EXTI15_10_IRQHandler
 .text.lcd28_writeram_prepare
                0x0800916c        0xc D:\svn\stm32\stm32_high\sw\prj\RIDE\all_demo\lcd28.o
                0x0800916c                lcd28_writeram_prepare
 .text.lcd28_setcursor
                0x08009178       0x1c D:\svn\stm32\stm32_high\sw\prj\RIDE\all_demo\lcd28.o
                0x08009178                lcd28_setcursor
 .text.lcd28_clear_screen
                0x08009194       0x24 D:\svn\stm32\stm32_high\sw\prj\RIDE\all_demo\lcd28.o
                0x08009194                lcd28_clear_screen
 .text.bsp_lcd28_init
                0x080091b8     0x1260 D:\svn\stm32\stm32_high\sw\prj\RIDE\all_demo\lcd28.o
                0x080091b8                bsp_lcd28_init
 .text.lcd28_draw_point
                0x0800a418       0x20 D:\svn\stm32\stm32_high\sw\prj\RIDE\all_demo\lcd28.o
                0x0800a418                lcd28_draw_point
 .text.lcd28_draw_line
                0x0800a438       0xac D:\svn\stm32\stm32_high\sw\prj\RIDE\all_demo\lcd28.o
                0x0800a438                lcd28_draw_line
 .text.lcd28_show_char
                0x0800a4e4      0x1b0 D:\svn\stm32\stm32_high\sw\prj\RIDE\all_demo\lcd28.o
                0x0800a4e4                lcd28_show_char
 .text.lcd28_show_string
                0x0800a694       0x60 D:\svn\stm32\stm32_high\sw\prj\RIDE\all_demo\lcd28.o
                0x0800a694                lcd28_show_string
 .text.lcd28_draw_point_big
                0x0800a6f4       0x30 D:\svn\stm32\stm32_high\sw\prj\RIDE\all_demo\lcd28.o
                0x0800a6f4                lcd28_draw_point_big
 .text.lcd32_writeram_prepare
                0x0800a724        0xc D:\svn\stm32\stm32_high\sw\prj\RIDE\all_demo\lcd32.o
                0x0800a724                lcd32_writeram_prepare
 .text.lcd32_setcursor
                0x0800a730       0x1c D:\svn\stm32\stm32_high\sw\prj\RIDE\all_demo\lcd32.o
                0x0800a730                lcd32_setcursor
 .text.lcd32_clear_screen
                0x0800a74c       0x24 D:\svn\stm32\stm32_high\sw\prj\RIDE\all_demo\lcd32.o
                0x0800a74c                lcd32_clear_screen
 .text.bsp_lcd32_init
                0x0800a770     0x1280 D:\svn\stm32\stm32_high\sw\prj\RIDE\all_demo\lcd32.o
                0x0800a770                bsp_lcd32_init
 .text.lcd32_draw_point
                0x0800b9f0       0x20 D:\svn\stm32\stm32_high\sw\prj\RIDE\all_demo\lcd32.o
                0x0800b9f0                lcd32_draw_point
 .text.lcd32_draw_line
                0x0800ba10       0xac D:\svn\stm32\stm32_high\sw\prj\RIDE\all_demo\lcd32.o
                0x0800ba10                lcd32_draw_line
 .text.lcd32_show_char
                0x0800babc      0x1b0 D:\svn\stm32\stm32_high\sw\prj\RIDE\all_demo\lcd32.o
                0x0800babc                lcd32_show_char
 .text.lcd32_show_string
                0x0800bc6c       0x60 D:\svn\stm32\stm32_high\sw\prj\RIDE\all_demo\lcd32.o
                0x0800bc6c                lcd32_show_string
 .text.lcd32_draw_point_big
                0x0800bccc       0x30 D:\svn\stm32\stm32_high\sw\prj\RIDE\all_demo\lcd32.o
                0x0800bccc                lcd32_draw_point_big
 .text.lcd43_clear_screen
                0x0800bcfc       0x88 D:\svn\stm32\stm32_high\sw\prj\RIDE\all_demo\lcd43.o
                0x0800bcfc                lcd43_clear_screen
 .text.bsp_lcd43_init
                0x0800bd84      0x260 D:\svn\stm32\stm32_high\sw\prj\RIDE\all_demo\lcd43.o
                0x0800bd84                bsp_lcd43_init
 .text.lcd43_clear_area
                0x0800bfe4       0x8c D:\svn\stm32\stm32_high\sw\prj\RIDE\all_demo\lcd43.o
                0x0800bfe4                lcd43_clear_area
 .text.lcd43_draw_point
                0x0800c070       0x60 D:\svn\stm32\stm32_high\sw\prj\RIDE\all_demo\lcd43.o
                0x0800c070                lcd43_draw_point
 .text.lcd43_draw_point_big
                0x0800c0d0       0x38 D:\svn\stm32\stm32_high\sw\prj\RIDE\all_demo\lcd43.o
                0x0800c0d0                lcd43_draw_point_big
 .text.lcd43_show_char
                0x0800c108       0xcc D:\svn\stm32\stm32_high\sw\prj\RIDE\all_demo\lcd43.o
                0x0800c108                lcd43_show_char
 .text.lcd43_show_char_mode
                0x0800c1d4      0x1c8 D:\svn\stm32\stm32_high\sw\prj\RIDE\all_demo\lcd43.o
                0x0800c1d4                lcd43_show_char_mode
 .text.lcd43_show_string_mode
                0x0800c39c       0x60 D:\svn\stm32\stm32_high\sw\prj\RIDE\all_demo\lcd43.o
                0x0800c39c                lcd43_show_string_mode
 .text.lcd43_show_num
                0x0800c3fc       0xa0 D:\svn\stm32\stm32_high\sw\prj\RIDE\all_demo\lcd43.o
                0x0800c3fc                lcd43_show_num
 .text.lcd43_show_string
                0x0800c49c       0x60 D:\svn\stm32\stm32_high\sw\prj\RIDE\all_demo\lcd43.o
                0x0800c49c                lcd43_show_string
 .text.lcd43_fill_color
                0x0800c4fc       0x58 D:\svn\stm32\stm32_high\sw\prj\RIDE\all_demo\lcd43.o
                0x0800c4fc                lcd43_fill_color
 .text.lcd43_draw_line
                0x0800c554       0xb4 D:\svn\stm32\stm32_high\sw\prj\RIDE\all_demo\lcd43.o
                0x0800c554                lcd43_draw_line
 .text.lcd43_draw_demo_icon
                0x0800c608       0xac D:\svn\stm32\stm32_high\sw\prj\RIDE\all_demo\lcd43.o
                0x0800c608                lcd43_draw_demo_icon
 .text.lcd43_fill_rectangle
                0x0800c6b4       0x88 D:\svn\stm32\stm32_high\sw\prj\RIDE\all_demo\lcd43.o
                0x0800c6b4                lcd43_fill_rectangle
 .text.lcd43_show_4num
                0x0800c73c       0xb8 D:\svn\stm32\stm32_high\sw\prj\RIDE\all_demo\lcd43.o
                0x0800c73c                lcd43_show_4num
 .text.lcd43_demo
                0x0800c7f4      0x1b8 D:\svn\stm32\stm32_high\sw\prj\RIDE\all_demo\lcd43.o
                0x0800c7f4                lcd43_demo
 .text.lcd43_draw_demo_icon_all
                0x0800c9ac       0x70 D:\svn\stm32\stm32_high\sw\prj\RIDE\all_demo\lcd43.o
                0x0800c9ac                lcd43_draw_demo_icon_all
 .text.lcd70_set_area
                0x0800ca1c       0x54 D:\svn\stm32\stm32_high\sw\prj\RIDE\all_demo\lcd70.o
                0x0800ca1c                lcd70_set_area
 .text.lcd70_clear_screen
                0x0800ca70       0x30 D:\svn\stm32\stm32_high\sw\prj\RIDE\all_demo\lcd70.o
                0x0800ca70                lcd70_clear_screen
 .text.bsp_lcd70_init
                0x0800caa0      0x4d0 D:\svn\stm32\stm32_high\sw\prj\RIDE\all_demo\lcd70.o
                0x0800caa0                bsp_lcd70_init
 .text.lcd70_draw_point
                0x0800cf70       0x1c D:\svn\stm32\stm32_high\sw\prj\RIDE\all_demo\lcd70.o
                0x0800cf70                lcd70_draw_point
 .text.lcd70_show_char
                0x0800cf8c       0xbc D:\svn\stm32\stm32_high\sw\prj\RIDE\all_demo\lcd70.o
                0x0800cf8c                lcd70_show_char
 .text.lcd70_show_char_mode
                0x0800d048      0x1c8 D:\svn\stm32\stm32_high\sw\prj\RIDE\all_demo\lcd70.o
                0x0800d048                lcd70_show_char_mode
 .text.lcd70_show_string_mode
                0x0800d210       0x6c D:\svn\stm32\stm32_high\sw\prj\RIDE\all_demo\lcd70.o
                0x0800d210                lcd70_show_string_mode
 .text.lcd70_fill_color
                0x0800d27c       0x44 D:\svn\stm32\stm32_high\sw\prj\RIDE\all_demo\lcd70.o
                0x0800d27c                lcd70_fill_color
 .text.lcd70_show_string
                0x0800d2c0       0x58 D:\svn\stm32\stm32_high\sw\prj\RIDE\all_demo\lcd70.o
                0x0800d2c0                lcd70_show_string
 .text.lcd70_draw_point_big
                0x0800d318       0x38 D:\svn\stm32\stm32_high\sw\prj\RIDE\all_demo\lcd70.o
                0x0800d318                lcd70_draw_point_big
 .text.lcd70_show_num
                0x0800d350       0xa0 D:\svn\stm32\stm32_high\sw\prj\RIDE\all_demo\lcd70.o
                0x0800d350                lcd70_show_num
 .text.lcd70_draw_line
                0x0800d3f0       0xb4 D:\svn\stm32\stm32_high\sw\prj\RIDE\all_demo\lcd70.o
                0x0800d3f0                lcd70_draw_line
 .text.lcd70_draw_demo_icon
                0x0800d4a4       0xac D:\svn\stm32\stm32_high\sw\prj\RIDE\all_demo\lcd70.o
                0x0800d4a4                lcd70_draw_demo_icon
 .text.lcd70_demo
                0x0800d550      0x1b8 D:\svn\stm32\stm32_high\sw\prj\RIDE\all_demo\lcd70.o
                0x0800d550                lcd70_demo
 .text.lcd70_draw_demo_icon_all
                0x0800d708       0x70 D:\svn\stm32\stm32_high\sw\prj\RIDE\all_demo\lcd70.o
                0x0800d708                lcd70_draw_demo_icon_all
 .text.LCD1602_GPIO_OUTPUT
                0x0800d778       0x2c D:\svn\stm32\stm32_high\sw\prj\RIDE\all_demo\lcd1602.o
                0x0800d778                LCD1602_GPIO_OUTPUT
 .text.LCD1602_GPIO_INPUT
                0x0800d7a4       0x2c D:\svn\stm32\stm32_high\sw\prj\RIDE\all_demo\lcd1602.o
                0x0800d7a4                LCD1602_GPIO_INPUT
 .text.bsp_lcd1602_gpio_init
                0x0800d7d0       0x60 D:\svn\stm32\stm32_high\sw\prj\RIDE\all_demo\lcd1602.o
                0x0800d7d0                bsp_lcd1602_gpio_init
 .text.LCDa_DI  0x0800d830       0x10 D:\svn\stm32\stm32_high\sw\prj\RIDE\all_demo\lcd1602.o
                0x0800d830                LCDa_DI
 .text.LCD1602_readbyte
                0x0800d840       0x58 D:\svn\stm32\stm32_high\sw\prj\RIDE\all_demo\lcd1602.o
                0x0800d840                LCD1602_readbyte
 .text.LCD1602_sendbyte
                0x0800d898       0x5c D:\svn\stm32\stm32_high\sw\prj\RIDE\all_demo\lcd1602.o
                0x0800d898                LCD1602_sendbyte
 .text.LCD1602_Char_Set
                0x0800d8f4       0x3c D:\svn\stm32\stm32_high\sw\prj\RIDE\all_demo\lcd1602.o
                0x0800d8f4                LCD1602_Char_Set
 .text.LCD1602_clear
                0x0800d930       0x18 D:\svn\stm32\stm32_high\sw\prj\RIDE\all_demo\lcd1602.o
                0x0800d930                LCD1602_clear
 .text.LCD1602_readBF
                0x0800d948       0x10 D:\svn\stm32\stm32_high\sw\prj\RIDE\all_demo\lcd1602.o
                0x0800d948                LCD1602_readBF
 .text.bsp_lcd1602_init
                0x0800d958       0x40 D:\svn\stm32\stm32_high\sw\prj\RIDE\all_demo\lcd1602.o
                0x0800d958                bsp_lcd1602_init
 .text.Write_8bits
                0x0800d998       0x74 D:\svn\stm32\stm32_high\sw\prj\RIDE\all_demo\lcd12864.o
                0x0800d998                Write_8bits
 .text.W_1byte  0x0800da0c       0x48 D:\svn\stm32\stm32_high\sw\prj\RIDE\all_demo\lcd12864.o
                0x0800da0c                W_1byte
 .text.LCD_Init1
                0x0800da54       0x74 D:\svn\stm32\stm32_high\sw\prj\RIDE\all_demo\lcd12864.o
                0x0800da54                LCD_Init1
 .text.LCD_Init0
                0x0800dac8       0x7c D:\svn\stm32\stm32_high\sw\prj\RIDE\all_demo\lcd12864.o
                0x0800dac8                LCD_Init0
 .text.LCD12864_Char_Set
                0x0800db44       0x74 D:\svn\stm32\stm32_high\sw\prj\RIDE\all_demo\lcd12864.o
                0x0800db44                LCD12864_Char_Set
 .text.LCD12864_GPIO_OUTPUT
                0x0800dbb8       0x2c D:\svn\stm32\stm32_high\sw\prj\RIDE\all_demo\lcd12864.o
                0x0800dbb8                LCD12864_GPIO_OUTPUT
 .text.bsp_lcd12864_gpio_init
                0x0800dbe4       0x84 D:\svn\stm32\stm32_high\sw\prj\RIDE\all_demo\lcd12864.o
                0x0800dbe4                bsp_lcd12864_gpio_init
 .text.bsp_lcd12864_init
                0x0800dc68       0x3c D:\svn\stm32\stm32_high\sw\prj\RIDE\all_demo\lcd12864.o
                0x0800dc68                bsp_lcd12864_init
 .text.bsp_fsmc_lcd_init
                0x0800dca4       0x88 D:\svn\stm32\stm32_high\sw\prj\RIDE\all_demo\lcd.o
                0x0800dca4                bsp_fsmc_lcd_init
 .text.bsp_lcd_gpio_init
                0x0800dd2c       0xc4 D:\svn\stm32\stm32_high\sw\prj\RIDE\all_demo\lcd.o
                0x0800dd2c                bsp_lcd_gpio_init
 .text.lcd_rst  0x0800ddf0       0x48 D:\svn\stm32\stm32_high\sw\prj\RIDE\all_demo\lcd.o
                0x0800ddf0                lcd_rst
 .text.lcd_wr_reg
                0x0800de38        0xc D:\svn\stm32\stm32_high\sw\prj\RIDE\all_demo\lcd.o
                0x0800de38                lcd_wr_reg
 .text.lcd_wr_reg_value
                0x0800de44       0x10 D:\svn\stm32\stm32_high\sw\prj\RIDE\all_demo\lcd.o
                0x0800de44                lcd_wr_reg_value
 .text.lcd_rd_data
                0x0800de54        0xc D:\svn\stm32\stm32_high\sw\prj\RIDE\all_demo\lcd.o
                0x0800de54                lcd_rd_data
 .text.lcd_wr_data
                0x0800de60        0xc D:\svn\stm32\stm32_high\sw\prj\RIDE\all_demo\lcd.o
                0x0800de60                lcd_wr_data
 .text.mn       0x0800de6c       0x24 D:\svn\stm32\stm32_high\sw\prj\RIDE\all_demo\lcd.o
                0x0800de6c                mn
 .text.bsp_led_gpio_init
                0x0800de90       0x68 D:\svn\stm32\stm32_high\sw\prj\RIDE\all_demo\led.o
                0x0800de90                bsp_led_gpio_init
 .text.bsp_led_core_on
                0x0800def8       0x14 D:\svn\stm32\stm32_high\sw\prj\RIDE\all_demo\led.o
                0x0800def8                bsp_led_core_on
 .text.bsp_led_core_off
                0x0800df0c       0x14 D:\svn\stm32\stm32_high\sw\prj\RIDE\all_demo\led.o
                0x0800df0c                bsp_led_core_off
 .text.bsp_led_core_toggle
                0x0800df20       0x2c D:\svn\stm32\stm32_high\sw\prj\RIDE\all_demo\led.o
                0x0800df20                bsp_led_core_toggle
 .text.bsp_led_bottom_on
                0x0800df4c       0x1c D:\svn\stm32\stm32_high\sw\prj\RIDE\all_demo\led.o
                0x0800df4c                bsp_led_bottom_on
 .text.bsp_led_bottom_off
                0x0800df68       0x1c D:\svn\stm32\stm32_high\sw\prj\RIDE\all_demo\led.o
                0x0800df68                bsp_led_bottom_off
 .text.service_led
                0x0800df84       0x10 D:\svn\stm32\stm32_high\sw\prj\RIDE\all_demo\main.o
                0x0800df84                service_led
 .text.service_timer
                0x0800df94       0x10 D:\svn\stm32\stm32_high\sw\prj\RIDE\all_demo\main.o
                0x0800df94                service_timer
 .text.service_rtc
                0x0800dfa4       0x10 D:\svn\stm32\stm32_high\sw\prj\RIDE\all_demo\main.o
                0x0800dfa4                service_rtc
 .text.service_sd
                0x0800dfb4       0x10 D:\svn\stm32\stm32_high\sw\prj\RIDE\all_demo\main.o
                0x0800dfb4                service_sd
 .text.service_usb
                0x0800dfc4       0x10 D:\svn\stm32\stm32_high\sw\prj\RIDE\all_demo\main.o
                0x0800dfc4                service_usb
 .text.service_lcd
                0x0800dfd4       0x10 D:\svn\stm32\stm32_high\sw\prj\RIDE\all_demo\main.o
                0x0800dfd4                service_lcd
 .text.service_eeprom
                0x0800dfe4       0x10 D:\svn\stm32\stm32_high\sw\prj\RIDE\all_demo\main.o
                0x0800dfe4                service_eeprom
 .text.service_key
                0x0800dff4       0x10 D:\svn\stm32\stm32_high\sw\prj\RIDE\all_demo\main.o
                0x0800dff4                service_key
 .text.service_rf
                0x0800e004       0x10 D:\svn\stm32\stm32_high\sw\prj\RIDE\all_demo\main.o
                0x0800e004                service_rf
 .text.service_mp3
                0x0800e014       0x10 D:\svn\stm32\stm32_high\sw\prj\RIDE\all_demo\main.o
                0x0800e014                service_mp3
 .text.service_uart2
                0x0800e024       0x10 D:\svn\stm32\stm32_high\sw\prj\RIDE\all_demo\main.o
                0x0800e024                service_uart2
 .text.service_rs485
                0x0800e034       0x10 D:\svn\stm32\stm32_high\sw\prj\RIDE\all_demo\main.o
                0x0800e034                service_rs485
 .text.service_can
                0x0800e044       0x10 D:\svn\stm32\stm32_high\sw\prj\RIDE\all_demo\main.o
                0x0800e044                service_can
 .text.service_adc
                0x0800e054       0x10 D:\svn\stm32\stm32_high\sw\prj\RIDE\all_demo\main.o
                0x0800e054                service_adc
 .text.service_dac
                0x0800e064       0x10 D:\svn\stm32\stm32_high\sw\prj\RIDE\all_demo\main.o
                0x0800e064                service_dac
 .text.service_buzzer
                0x0800e074       0x10 D:\svn\stm32\stm32_high\sw\prj\RIDE\all_demo\main.o
                0x0800e074                service_buzzer
 .text.service_lcd1602
                0x0800e084       0x10 D:\svn\stm32\stm32_high\sw\prj\RIDE\all_demo\main.o
                0x0800e084                service_lcd1602
 .text.service_lcd12864
                0x0800e094       0x10 D:\svn\stm32\stm32_high\sw\prj\RIDE\all_demo\main.o
                0x0800e094                service_lcd12864
 .text.service_key_polling_stop
                0x0800e0a4       0x10 D:\svn\stm32\stm32_high\sw\prj\RIDE\all_demo\main.o
                0x0800e0a4                service_key_polling_stop
 .text.service_rf_stop
                0x0800e0b4       0x10 D:\svn\stm32\stm32_high\sw\prj\RIDE\all_demo\main.o
                0x0800e0b4                service_rf_stop
 .text.service_exit
                0x0800e0c4       0x10 D:\svn\stm32\stm32_high\sw\prj\RIDE\all_demo\main.o
                0x0800e0c4                service_exit
 .text.service_mp3play_stop
                0x0800e0d4       0x10 D:\svn\stm32\stm32_high\sw\prj\RIDE\all_demo\main.o
                0x0800e0d4                service_mp3play_stop
 .text.service_dac1_noise_start
                0x0800e0e4       0x1c D:\svn\stm32\stm32_high\sw\prj\RIDE\all_demo\main.o
                0x0800e0e4                service_dac1_noise_start
 .text.service_usb_stop
                0x0800e100       0x1c D:\svn\stm32\stm32_high\sw\prj\RIDE\all_demo\main.o
                0x0800e100                service_usb_stop
 .text.service_rtc_stop
                0x0800e11c       0x1c D:\svn\stm32\stm32_high\sw\prj\RIDE\all_demo\main.o
                0x0800e11c                service_rtc_stop
 .text.service_tim2_stop
                0x0800e138       0x1c D:\svn\stm32\stm32_high\sw\prj\RIDE\all_demo\main.o
                0x0800e138                service_tim2_stop
 .text.service_tim2_ticktime
                0x0800e154       0x30 D:\svn\stm32\stm32_high\sw\prj\RIDE\all_demo\main.o
                0x0800e154                service_tim2_ticktime
 .text.service_lcd12864_start
                0x0800e184       0x5c D:\svn\stm32\stm32_high\sw\prj\RIDE\all_demo\main.o
                0x0800e184                service_lcd12864_start
 .text.service_lcd1602_start
                0x0800e1e0       0x40 D:\svn\stm32\stm32_high\sw\prj\RIDE\all_demo\main.o
                0x0800e1e0                service_lcd1602_start
 .text.service_buzzer_stop
                0x0800e220       0x18 D:\svn\stm32\stm32_high\sw\prj\RIDE\all_demo\main.o
                0x0800e220                service_buzzer_stop
 .text.service_buzzer_start
                0x0800e238       0x18 D:\svn\stm32\stm32_high\sw\prj\RIDE\all_demo\main.o
                0x0800e238                service_buzzer_start
 .text.service_key_polling_start
                0x0800e250       0x54 D:\svn\stm32\stm32_high\sw\prj\RIDE\all_demo\main.o
                0x0800e250                service_key_polling_start
 *fill*         0x0800e2a4        0x4 00
 .text.service_adc12_8_start
                0x0800e2a8       0xb0 D:\svn\stm32\stm32_high\sw\prj\RIDE\all_demo\main.o
                0x0800e2a8                service_adc12_8_start
 .text.service_adc12_9_start
                0x0800e358       0xb0 D:\svn\stm32\stm32_high\sw\prj\RIDE\all_demo\main.o
                0x0800e358                service_adc12_9_start
 .text.service_adc12_15_start
                0x0800e408       0x88 D:\svn\stm32\stm32_high\sw\prj\RIDE\all_demo\main.o
                0x0800e408                service_adc12_15_start
 .text.service_can_normal_start
                0x0800e490      0x234 D:\svn\stm32\stm32_high\sw\prj\RIDE\all_demo\main.o
                0x0800e490                service_can_normal_start
 .text.service_can_loopback_start
                0x0800e6c4       0x50 D:\svn\stm32\stm32_high\sw\prj\RIDE\all_demo\main.o
                0x0800e6c4                service_can_loopback_start
 .text.service_rs485_slave_start
                0x0800e714       0x34 D:\svn\stm32\stm32_high\sw\prj\RIDE\all_demo\main.o
                0x0800e714                service_rs485_slave_start
 .text.service_rs485_master_start
                0x0800e748       0x88 D:\svn\stm32\stm32_high\sw\prj\RIDE\all_demo\main.o
                0x0800e748                service_rs485_master_start
 .text.usart3_event
                0x0800e7d0       0xa4 D:\svn\stm32\stm32_high\sw\prj\RIDE\all_demo\main.o
                0x0800e7d0                usart3_event
 .text.service_uart2_start
                0x0800e874       0x20 D:\svn\stm32\stm32_high\sw\prj\RIDE\all_demo\main.o
                0x0800e874                service_uart2_start
 .text.service_mp3play_start
                0x0800e894      0x15c D:\svn\stm32\stm32_high\sw\prj\RIDE\all_demo\main.o
                0x0800e894                service_mp3play_start
 .text.service_sd_file_list
                0x0800e9f0       0xb8 D:\svn\stm32\stm32_high\sw\prj\RIDE\all_demo\main.o
                0x0800e9f0                service_sd_file_list
 .text.service_rf_start_tx
                0x0800eaa8       0xc0 D:\svn\stm32\stm32_high\sw\prj\RIDE\all_demo\main.o
                0x0800eaa8                service_rf_start_tx
 .text.service_rf_start_rx
                0x0800eb68       0x98 D:\svn\stm32\stm32_high\sw\prj\RIDE\all_demo\main.o
                0x0800eb68                service_rf_start_rx
 .text.service_eeprom_read
                0x0800ec00       0x40 D:\svn\stm32\stm32_high\sw\prj\RIDE\all_demo\main.o
                0x0800ec00                service_eeprom_read
 .text.service_eeprom_write
                0x0800ec40       0x68 D:\svn\stm32\stm32_high\sw\prj\RIDE\all_demo\main.o
                0x0800ec40                service_eeprom_write
 .text.service_lcd70_touch_start
                0x0800eca8      0x2b0 D:\svn\stm32\stm32_high\sw\prj\RIDE\all_demo\main.o
                0x0800eca8                service_lcd70_touch_start
 .text.service_lcd43_touch_start
                0x0800ef58      0x2a4 D:\svn\stm32\stm32_high\sw\prj\RIDE\all_demo\main.o
                0x0800ef58                service_lcd43_touch_start
 .text.service_lcd32_touch_start
                0x0800f1fc       0xc0 D:\svn\stm32\stm32_high\sw\prj\RIDE\all_demo\main.o
                0x0800f1fc                service_lcd32_touch_start
 .text.service_lcd32_start
                0x0800f2bc       0x88 D:\svn\stm32\stm32_high\sw\prj\RIDE\all_demo\main.o
                0x0800f2bc                service_lcd32_start
 .text.service_lcd28_touch_start
                0x0800f344       0xbc D:\svn\stm32\stm32_high\sw\prj\RIDE\all_demo\main.o
                0x0800f344                service_lcd28_touch_start
 .text.service_lcd28_start
                0x0800f400       0x84 D:\svn\stm32\stm32_high\sw\prj\RIDE\all_demo\main.o
                0x0800f400                service_lcd28_start
 .text.service_usb_start
                0x0800f484       0x44 D:\svn\stm32\stm32_high\sw\prj\RIDE\all_demo\main.o
                0x0800f484                service_usb_start
 .text.service_user_led_off
                0x0800f4c8       0x24 D:\svn\stm32\stm32_high\sw\prj\RIDE\all_demo\main.o
                0x0800f4c8                service_user_led_off
 .text.service_user_led_on
                0x0800f4ec       0x24 D:\svn\stm32\stm32_high\sw\prj\RIDE\all_demo\main.o
                0x0800f4ec                service_user_led_on
 .text.wait_10ms
                0x0800f510       0x18 D:\svn\stm32\stm32_high\sw\prj\RIDE\all_demo\main.o
                0x0800f510                wait_10ms
 .text.key5_interrupt_event
                0x0800f528       0x74 D:\svn\stm32\stm32_high\sw\prj\RIDE\all_demo\main.o
                0x0800f528                key5_interrupt_event
 .text.welcome  0x0800f59c       0x38 D:\svn\stm32\stm32_high\sw\prj\RIDE\all_demo\main.o
                0x0800f59c                welcome
 .text.display_menu
                0x0800f5d4       0xac D:\svn\stm32\stm32_high\sw\prj\RIDE\all_demo\main.o
                0x0800f5d4                display_menu
 .text.Touch_Key_Pro
                0x0800f680      0x308 D:\svn\stm32\stm32_high\sw\prj\RIDE\all_demo\main.o
                0x0800f680                Touch_Key_Pro
 .text.Is_In_Area
                0x0800f988       0x38 D:\svn\stm32\stm32_high\sw\prj\RIDE\all_demo\main.o
                0x0800f988                Is_In_Area
 .text.Touch_To_Num
                0x0800f9c0      0x668 D:\svn\stm32\stm32_high\sw\prj\RIDE\all_demo\main.o
                0x0800f9c0                Touch_To_Num
 .text.service_lcd70_start
                0x08010028       0xf8 D:\svn\stm32\stm32_high\sw\prj\RIDE\all_demo\main.o
                0x08010028                service_lcd70_start
 .text.service_lcd43_start
                0x08010120       0xf8 D:\svn\stm32\stm32_high\sw\prj\RIDE\all_demo\main.o
                0x08010120                service_lcd43_start
 .text.gpio_polling_key
                0x08010218      0x18c D:\svn\stm32\stm32_high\sw\prj\RIDE\all_demo\main.o
                0x08010218                gpio_polling_key
 .text.timer2_event
                0x080103a4       0x60 D:\svn\stm32\stm32_high\sw\prj\RIDE\all_demo\main.o
                0x080103a4                timer2_event
 .text.tim_display
                0x08010404       0x40 D:\svn\stm32\stm32_high\sw\prj\RIDE\all_demo\main.o
                0x08010404                tim_display
 .text.time_show
                0x08010444        0xc D:\svn\stm32\stm32_high\sw\prj\RIDE\all_demo\main.o
                0x08010444                time_show
 .text.service_rtc_start
                0x08010450       0x24 D:\svn\stm32\stm32_high\sw\prj\RIDE\all_demo\main.o
                0x08010450                service_rtc_start
 .text.rtc_event
                0x08010474       0x70 D:\svn\stm32\stm32_high\sw\prj\RIDE\all_demo\main.o
                0x08010474                rtc_event
 .text.usb_mouse_control
                0x080104e4       0x98 D:\svn\stm32\stm32_high\sw\prj\RIDE\all_demo\main.o
                0x080104e4                usb_mouse_control
 .text.run_menu_selection
                0x0801057c       0xf4 D:\svn\stm32\stm32_high\sw\prj\RIDE\all_demo\main.o
                0x0801057c                run_menu_selection
 .text.main     0x08010670       0xb4 D:\svn\stm32\stm32_high\sw\prj\RIDE\all_demo\main.o
                0x08010670                main
 .text.bsp_sd_gpio_init
                0x08010724       0x4c D:\svn\stm32\stm32_high\sw\prj\RIDE\all_demo\mmc_sd.o
                0x08010724                bsp_sd_gpio_init
 .text.SD_GetResponse
                0x08010770       0x34 D:\svn\stm32\stm32_high\sw\prj\RIDE\all_demo\mmc_sd.o
                0x08010770                SD_GetResponse
 .text.SD_WaitDataReady
                0x080107a4       0x70 D:\svn\stm32\stm32_high\sw\prj\RIDE\all_demo\mmc_sd.o
                0x080107a4                SD_WaitDataReady
 .text.SD_SendCommand
                0x08010814       0x9c D:\svn\stm32\stm32_high\sw\prj\RIDE\all_demo\mmc_sd.o
                0x08010814                SD_SendCommand
 .text.SD_SendCommand_NoDeassert
                0x080108b0       0x74 D:\svn\stm32\stm32_high\sw\prj\RIDE\all_demo\mmc_sd.o
                0x080108b0                SD_SendCommand_NoDeassert
 .text.SD_Idle_Sta
                0x08010924       0x50 D:\svn\stm32\stm32_high\sw\prj\RIDE\all_demo\mmc_sd.o
                0x08010924                SD_Idle_Sta
 .text.SD_Init  0x08010974      0x258 D:\svn\stm32\stm32_high\sw\prj\RIDE\all_demo\mmc_sd.o
                0x08010974                SD_Init
 .text.SD_ReceiveData
                0x08010bcc       0x84 D:\svn\stm32\stm32_high\sw\prj\RIDE\all_demo\mmc_sd.o
                0x08010bcc                SD_ReceiveData
 .text.SD_GetCSD
                0x08010c50       0x2c D:\svn\stm32\stm32_high\sw\prj\RIDE\all_demo\mmc_sd.o
                0x08010c50                SD_GetCSD
 .text.SD_GetCapacity
                0x08010c7c      0x124 D:\svn\stm32\stm32_high\sw\prj\RIDE\all_demo\mmc_sd.o
                0x08010c7c                SD_GetCapacity
 .text.SD_ReadSingleBlock
                0x08010da0       0x3c D:\svn\stm32\stm32_high\sw\prj\RIDE\all_demo\mmc_sd.o
                0x08010da0                SD_ReadSingleBlock
 .text.SD_WriteSingleBlock
                0x08010ddc       0xdc D:\svn\stm32\stm32_high\sw\prj\RIDE\all_demo\mmc_sd.o
                0x08010ddc                SD_WriteSingleBlock
 .text.SD_ReadMultiBlock
                0x08010eb8       0x74 D:\svn\stm32\stm32_high\sw\prj\RIDE\all_demo\mmc_sd.o
                0x08010eb8                SD_ReadMultiBlock
 .text.SD_WriteMultiBlock
                0x08010f2c      0x108 D:\svn\stm32\stm32_high\sw\prj\RIDE\all_demo\mmc_sd.o
                0x08010f2c                SD_WriteMultiBlock
 .text.SD_WaitReady
                0x08011034       0x18 D:\svn\stm32\stm32_high\sw\prj\RIDE\all_demo\mmc_sd.o
                0x08011034                SD_WaitReady
 .text.bsp_nrf24l01_init
                0x0801104c       0xf0 D:\svn\stm32\stm32_high\sw\prj\RIDE\all_demo\nrf24l01.o
                0x0801104c                bsp_nrf24l01_init
 .text.nRF24L01_Write_Reg
                0x0801113c       0x28 D:\svn\stm32\stm32_high\sw\prj\RIDE\all_demo\nrf24l01.o
                0x0801113c                nRF24L01_Write_Reg
 .text.nRF24L01_Read_Reg
                0x08011164       0x24 D:\svn\stm32\stm32_high\sw\prj\RIDE\all_demo\nrf24l01.o
                0x08011164                nRF24L01_Read_Reg
 .text.nRF24L01_Read_Buf
                0x08011188       0x48 D:\svn\stm32\stm32_high\sw\prj\RIDE\all_demo\nrf24l01.o
                0x08011188                nRF24L01_Read_Buf
 .text.nRF24L01_Write_Buf
                0x080111d0       0x40 D:\svn\stm32\stm32_high\sw\prj\RIDE\all_demo\nrf24l01.o
                0x080111d0                nRF24L01_Write_Buf
 .text.nRF24L01_Check
                0x08011210       0x6c D:\svn\stm32\stm32_high\sw\prj\RIDE\all_demo\nrf24l01.o
                0x08011210                nRF24L01_Check
 .text.nRF24L01_TxPacket
                0x0801127c       0x74 D:\svn\stm32\stm32_high\sw\prj\RIDE\all_demo\nrf24l01.o
                0x0801127c                nRF24L01_TxPacket
 .text.nRF24L01_RxPacket
                0x080112f0       0x4c D:\svn\stm32\stm32_high\sw\prj\RIDE\all_demo\nrf24l01.o
                0x080112f0                nRF24L01_RxPacket
 .text.nRF24L01_RX_Mode
                0x0801133c       0x70 D:\svn\stm32\stm32_high\sw\prj\RIDE\all_demo\nrf24l01.o
                0x0801133c                nRF24L01_RX_Mode
 .text.nRF24L01_TX_Mode
                0x080113ac       0x84 D:\svn\stm32\stm32_high\sw\prj\RIDE\all_demo\nrf24l01.o
                0x080113ac                nRF24L01_TX_Mode
 .text.q_add_tail
                0x08011430       0x20 D:\svn\stm32\stm32_high\sw\prj\RIDE\all_demo\queue.o
                0x08011430                q_add_tail
 .text.q_remove_node
                0x08011450       0x28 D:\svn\stm32\stm32_high\sw\prj\RIDE\all_demo\queue.o
                0x08011450                q_remove_node
 .text.q_remove_head
                0x08011478       0x10 D:\svn\stm32\stm32_high\sw\prj\RIDE\all_demo\queue.o
                0x08011478                q_remove_head
 .text.q_remove_tail
                0x08011488       0x10 D:\svn\stm32\stm32_high\sw\prj\RIDE\all_demo\queue.o
                0x08011488                q_remove_tail
 .text.q_remove_all
                0x08011498       0x10 D:\svn\stm32\stm32_high\sw\prj\RIDE\all_demo\queue.o
                0x08011498                q_remove_all
 .text.q_get_count
                0x080114a8        0x8 D:\svn\stm32\stm32_high\sw\prj\RIDE\all_demo\queue.o
                0x080114a8                q_get_count
 .text.bsp_rs485_gpio_init
                0x080114b0       0x30 D:\svn\stm32\stm32_high\sw\prj\RIDE\all_demo\rs485.o
                0x080114b0                bsp_rs485_gpio_init
 .text.rs485_set_rx
                0x080114e0       0x14 D:\svn\stm32\stm32_high\sw\prj\RIDE\all_demo\rs485.o
                0x080114e0                rs485_set_rx
 .text.rs485_set_tx
                0x080114f4       0x14 D:\svn\stm32\stm32_high\sw\prj\RIDE\all_demo\rs485.o
                0x080114f4                rs485_set_tx
 .text.bsp_rs485_init
                0x08011508        0x8 D:\svn\stm32\stm32_high\sw\prj\RIDE\all_demo\rs485.o
                0x08011508                bsp_rs485_init
 .text.rs485_puts
                0x08011510       0x48 D:\svn\stm32\stm32_high\sw\prj\RIDE\all_demo\rs485.o
                0x08011510                rs485_puts
 .text.register_rtc_function
                0x08011558       0x10 D:\svn\stm32\stm32_high\sw\prj\RIDE\all_demo\rtc.o
                0x08011558                register_rtc_function
 .text.RTC_IRQHandler
                0x08011568       0x28 D:\svn\stm32\stm32_high\sw\prj\RIDE\all_demo\rtc.o
                0x08011568                RTC_IRQHandler
 .text.rtc_configuration
                0x08011590       0x64 D:\svn\stm32\stm32_high\sw\prj\RIDE\all_demo\rtc.o
                0x08011590                rtc_configuration
 .text.time_regulate
                0x080115f4        0x8 D:\svn\stm32\stm32_high\sw\prj\RIDE\all_demo\rtc.o
                0x080115f4                time_regulate
 .text.time_adjust
                0x080115fc       0x14 D:\svn\stm32\stm32_high\sw\prj\RIDE\all_demo\rtc.o
                0x080115fc                time_adjust
 .text.bsp_init_rtc
                0x08011610       0x88 D:\svn\stm32\stm32_high\sw\prj\RIDE\all_demo\rtc.o
                0x08011610                bsp_init_rtc
 .text.bsp_set_spi2_speed
                0x08011698       0x74 D:\svn\stm32\stm32_high\sw\prj\RIDE\all_demo\spi.o
                0x08011698                bsp_set_spi2_speed
 .text.bsp_set_spi2_speed_mp3
                0x0801170c       0x64 D:\svn\stm32\stm32_high\sw\prj\RIDE\all_demo\spi.o
                0x0801170c                bsp_set_spi2_speed_mp3
 .text.bsp_readwritebyte_spi2
                0x08011770       0x6c D:\svn\stm32\stm32_high\sw\prj\RIDE\all_demo\spi.o
                0x08011770                bsp_readwritebyte_spi2
 .text.NMI_Handler
                0x080117dc        0x4 D:\svn\stm32\stm32_high\sw\prj\RIDE\all_demo\stm32f10x_it.o
                0x080117dc                NMI_Handler
 .text.HardFault_Handler
                0x080117e0        0x4 D:\svn\stm32\stm32_high\sw\prj\RIDE\all_demo\stm32f10x_it.o
                0x080117e0                HardFault_Handler
 .text.MemManage_Handler
                0x080117e4        0x4 D:\svn\stm32\stm32_high\sw\prj\RIDE\all_demo\stm32f10x_it.o
                0x080117e4                MemManage_Handler
 .text.BusFault_Handler
                0x080117e8        0x4 D:\svn\stm32\stm32_high\sw\prj\RIDE\all_demo\stm32f10x_it.o
                0x080117e8                BusFault_Handler
 .text.UsageFault_Handler
                0x080117ec        0x4 D:\svn\stm32\stm32_high\sw\prj\RIDE\all_demo\stm32f10x_it.o
                0x080117ec                UsageFault_Handler
 .text.SVC_Handler
                0x080117f0        0x4 D:\svn\stm32\stm32_high\sw\prj\RIDE\all_demo\stm32f10x_it.o
                0x080117f0                SVC_Handler
 .text.DebugMon_Handler
                0x080117f4        0x4 D:\svn\stm32\stm32_high\sw\prj\RIDE\all_demo\stm32f10x_it.o
                0x080117f4                DebugMon_Handler
 .text.PendSV_Handler
                0x080117f8        0x4 D:\svn\stm32\stm32_high\sw\prj\RIDE\all_demo\stm32f10x_it.o
                0x080117f8                PendSV_Handler
 .text.SysTick_Handler
                0x080117fc        0x4 D:\svn\stm32\stm32_high\sw\prj\RIDE\all_demo\stm32f10x_it.o
                0x080117fc                SysTick_Handler
 .text.USB_LP_CAN1_RX0_IRQHandler
                0x08011800      0x128 D:\svn\stm32\stm32_high\sw\prj\RIDE\all_demo\stm32f10x_it.o
                0x08011800                USB_LP_CAN1_RX0_IRQHandler
 .text.USBWakeUp_IRQHandler
                0x08011928        0x4 D:\svn\stm32\stm32_high\sw\prj\RIDE\all_demo\stm32f10x_it.o
                0x08011928                USBWakeUp_IRQHandler
 .text.register_timer_function
                0x0801192c       0x10 D:\svn\stm32\stm32_high\sw\prj\RIDE\all_demo\timer.o
                0x0801192c                register_timer_function
 .text.TIM2_IRQHandler
                0x0801193c       0x28 D:\svn\stm32\stm32_high\sw\prj\RIDE\all_demo\timer.o
                0x0801193c                TIM2_IRQHandler
 .text.bsp_init_timer2
                0x08011964       0x6c D:\svn\stm32\stm32_high\sw\prj\RIDE\all_demo\timer.o
                0x08011964                bsp_init_timer2
 .text.bsp_touch_spi_init
                0x080119d0       0xb4 D:\svn\stm32\stm32_high\sw\prj\RIDE\all_demo\touch.o
                0x080119d0                bsp_touch_spi_init
 .text.bsp_touch_gpio_init_intettupt
                0x08011a84       0x24 D:\svn\stm32\stm32_high\sw\prj\RIDE\all_demo\touch.o
                0x08011a84                bsp_touch_gpio_init_intettupt
 .text.bsp_touch_nvic_init
                0x08011aa8       0x5c D:\svn\stm32\stm32_high\sw\prj\RIDE\all_demo\touch.o
                0x08011aa8                bsp_touch_nvic_init
 .text.bsp_touch_init_interrupt
                0x08011b04       0x10 D:\svn\stm32\stm32_high\sw\prj\RIDE\all_demo\touch.o
                0x08011b04                bsp_touch_init_interrupt
 .text.spi1_write_byte
                0x08011b14       0x40 D:\svn\stm32\stm32_high\sw\prj\RIDE\all_demo\touch.o
                0x08011b14                spi1_write_byte
 .text.lcd28_touch_point_draw
                0x08011b54       0x70 D:\svn\stm32\stm32_high\sw\prj\RIDE\all_demo\touch.o
                0x08011b54                lcd28_touch_point_draw
 .text.lcd32_touch_point_draw
                0x08011bc4       0x70 D:\svn\stm32\stm32_high\sw\prj\RIDE\all_demo\touch.o
                0x08011bc4                lcd32_touch_point_draw
 .text.lcd70_touch_point_draw
                0x08011c34       0x80 D:\svn\stm32\stm32_high\sw\prj\RIDE\all_demo\touch.o
                0x08011c34                lcd70_touch_point_draw
 .text.lcd43_touch_point_draw
                0x08011cb4       0x80 D:\svn\stm32\stm32_high\sw\prj\RIDE\all_demo\touch.o
                0x08011cb4                lcd43_touch_point_draw
 .text.read_xpt2046_spi
                0x08011d34       0x54 D:\svn\stm32\stm32_high\sw\prj\RIDE\all_demo\touch.o
                0x08011d34                read_xpt2046_spi
 .text.read_xpt2046
                0x08011d88       0x94 D:\svn\stm32\stm32_high\sw\prj\RIDE\all_demo\touch.o
                0x08011d88                read_xpt2046
 .text.read_xpt2046_xy
                0x08011e1c       0x44 D:\svn\stm32\stm32_high\sw\prj\RIDE\all_demo\touch.o
                0x08011e1c                read_xpt2046_xy
 .text.lcd_touch_read_xpt2046_xy
                0x08011e60       0xc0 D:\svn\stm32\stm32_high\sw\prj\RIDE\all_demo\touch.o
                0x08011e60                lcd_touch_read_xpt2046_xy
 .text.lcd_touch_interrupt_set
                0x08011f20       0x50 D:\svn\stm32\stm32_high\sw\prj\RIDE\all_demo\touch.o
                0x08011f20                lcd_touch_interrupt_set
 .text.lcd_touch_read_once
                0x08011f70       0xa8 D:\svn\stm32\stm32_high\sw\prj\RIDE\all_demo\touch.o
                0x08011f70                lcd_touch_read_once
 .text.lcd28_touch_adjust
                0x08012018      0x5c8 D:\svn\stm32\stm32_high\sw\prj\RIDE\all_demo\touch.o
                0x08012018                lcd28_touch_adjust
 .text.lcd32_touch_adjust
                0x080125e0      0x5c8 D:\svn\stm32\stm32_high\sw\prj\RIDE\all_demo\touch.o
                0x080125e0                lcd32_touch_adjust
 .text.lcd43_touch_adjust
                0x08012ba8      0x5c8 D:\svn\stm32\stm32_high\sw\prj\RIDE\all_demo\touch.o
                0x08012ba8                lcd43_touch_adjust
 .text.lcd70_touch_adjust
                0x08013170      0x5c8 D:\svn\stm32\stm32_high\sw\prj\RIDE\all_demo\touch.o
                0x08013170                lcd70_touch_adjust
 .text.convert2pos
                0x08013738       0x70 D:\svn\stm32\stm32_high\sw\prj\RIDE\all_demo\touch.o
                0x08013738                convert2pos
 .text.EXTI9_5_IRQHandler
                0x080137a8       0x24 D:\svn\stm32\stm32_high\sw\prj\RIDE\all_demo\touch.o
                0x080137a8                EXTI9_5_IRQHandler
 .text.init_usart1_buffer
                0x080137cc       0xe0 D:\svn\stm32\stm32_high\sw\prj\RIDE\all_demo\usart.o
                0x080137cc                init_usart1_buffer
 .text.usart_transmit_byte
                0x080138ac       0x1c D:\svn\stm32\stm32_high\sw\prj\RIDE\all_demo\usart.o
                0x080138ac                usart_transmit_byte
 .text.usart1_tx_proc
                0x080138c8       0x6c D:\svn\stm32\stm32_high\sw\prj\RIDE\all_demo\usart.o
                0x080138c8                usart1_tx_proc
 .text.usart_transmit_string
                0x08013934       0xd0 D:\svn\stm32\stm32_high\sw\prj\RIDE\all_demo\usart.o
                0x08013934                usart_transmit_string
 .text.usart1_transmit_string
                0x08013a04       0x10 D:\svn\stm32\stm32_high\sw\prj\RIDE\all_demo\usart.o
                0x08013a04                usart1_transmit_string
 .text.usart1_transmit_string_format
                0x08013a14       0x3c D:\svn\stm32\stm32_high\sw\prj\RIDE\all_demo\usart.o
                0x08013a14                usart1_transmit_string_format
 .text.bsp_init_irq_usart1
                0x08013a50       0xb4 D:\svn\stm32\stm32_high\sw\prj\RIDE\all_demo\usart.o
                0x08013a50                bsp_init_irq_usart1
 .text.USART1_IRQHandler
                0x08013b04       0x5c D:\svn\stm32\stm32_high\sw\prj\RIDE\all_demo\usart.o
                0x08013b04                USART1_IRQHandler
 .text.usart_is_ne
                0x08013b60       0x24 D:\svn\stm32\stm32_high\sw\prj\RIDE\all_demo\usart.o
                0x08013b60                usart_is_ne
 .text.usart1_get_data
                0x08013b84       0x6c D:\svn\stm32\stm32_high\sw\prj\RIDE\all_demo\usart.o
                0x08013b84                usart1_get_data
 .text.bsp_init_irq_usart2
                0x08013bf0       0xb0 D:\svn\stm32\stm32_high\sw\prj\RIDE\all_demo\usart.o
                0x08013bf0                bsp_init_irq_usart2
 .text.usart2_transmit_byte
                0x08013ca0       0x10 D:\svn\stm32\stm32_high\sw\prj\RIDE\all_demo\usart.o
                0x08013ca0                usart2_transmit_byte
 .text.USART2_IRQHandler
                0x08013cb0       0x30 D:\svn\stm32\stm32_high\sw\prj\RIDE\all_demo\usart.o
                0x08013cb0                USART2_IRQHandler
 .text.usart2_transmit_string
                0x08013ce0       0x20 D:\svn\stm32\stm32_high\sw\prj\RIDE\all_demo\usart.o
                0x08013ce0                usart2_transmit_string
 .text.bsp_init_irq_usart3
                0x08013d00       0xb0 D:\svn\stm32\stm32_high\sw\prj\RIDE\all_demo\usart.o
                0x08013d00                bsp_init_irq_usart3
 .text.register_usart_function
                0x08013db0       0x10 D:\svn\stm32\stm32_high\sw\prj\RIDE\all_demo\usart.o
                0x08013db0                register_usart_function
 .text.USART3_IRQHandler
                0x08013dc0       0x34 D:\svn\stm32\stm32_high\sw\prj\RIDE\all_demo\usart.o
                0x08013dc0                USART3_IRQHandler
 .text.usart3_transmit_byte
                0x08013df4       0x10 D:\svn\stm32\stm32_high\sw\prj\RIDE\all_demo\usart.o
                0x08013df4                usart3_transmit_byte
 .text.USB_Istr
                0x08013e04      0x10c D:\svn\stm32\stm32_high\sw\prj\RIDE\all_demo\usb_istr.o
                0x08013e04                USB_Istr
 .text.Joystick_SetConfiguration
                0x08013f10       0x18 D:\svn\stm32\stm32_high\sw\prj\RIDE\all_demo\usb_prop.o
                0x08013f10                Joystick_SetConfiguration
 .text.Joystick_SetDeviceAddress
                0x08013f28       0x10 D:\svn\stm32\stm32_high\sw\prj\RIDE\all_demo\usb_prop.o
                0x08013f28                Joystick_SetDeviceAddress
 .text.Joystick_Status_In
                0x08013f38        0x4 D:\svn\stm32\stm32_high\sw\prj\RIDE\all_demo\usb_prop.o
                0x08013f38                Joystick_Status_In
 .text.Joystick_Status_Out
                0x08013f3c        0x4 D:\svn\stm32\stm32_high\sw\prj\RIDE\all_demo\usb_prop.o
                0x08013f3c                Joystick_Status_Out
 .text.Joystick_Data_Setup
                0x08013f40       0x84 D:\svn\stm32\stm32_high\sw\prj\RIDE\all_demo\usb_prop.o
                0x08013f40                Joystick_Data_Setup
 .text.Joystick_Get_Interface_Setting
                0x08013fc4       0x14 D:\svn\stm32\stm32_high\sw\prj\RIDE\all_demo\usb_prop.o
                0x08013fc4                Joystick_Get_Interface_Setting
 .text.Joystick_GetProtocolValue
                0x08013fd8       0x1c D:\svn\stm32\stm32_high\sw\prj\RIDE\all_demo\usb_prop.o
                0x08013fd8                Joystick_GetProtocolValue
 .text.Joystick_GetHIDDescriptor
                0x08013ff4       0x10 D:\svn\stm32\stm32_high\sw\prj\RIDE\all_demo\usb_prop.o
                0x08013ff4                Joystick_GetHIDDescriptor
 .text.Joystick_GetReportDescriptor
                0x08014004       0x10 D:\svn\stm32\stm32_high\sw\prj\RIDE\all_demo\usb_prop.o
                0x08014004                Joystick_GetReportDescriptor
 .text.Joystick_GetStringDescriptor
                0x08014014       0x28 D:\svn\stm32\stm32_high\sw\prj\RIDE\all_demo\usb_prop.o
                0x08014014                Joystick_GetStringDescriptor
 .text.Joystick_GetConfigDescriptor
                0x0801403c       0x10 D:\svn\stm32\stm32_high\sw\prj\RIDE\all_demo\usb_prop.o
                0x0801403c                Joystick_GetConfigDescriptor
 .text.Joystick_GetDeviceDescriptor
                0x0801404c       0x10 D:\svn\stm32\stm32_high\sw\prj\RIDE\all_demo\usb_prop.o
                0x0801404c                Joystick_GetDeviceDescriptor
 .text.Joystick_Reset
                0x0801405c       0xb4 D:\svn\stm32\stm32_high\sw\prj\RIDE\all_demo\usb_prop.o
                0x0801405c                Joystick_Reset
 .text.Joystick_init
                0x08014110       0x28 D:\svn\stm32\stm32_high\sw\prj\RIDE\all_demo\usb_prop.o
                0x08014110                Joystick_init
 .text.Joystick_SetProtocol
                0x08014138       0x18 D:\svn\stm32\stm32_high\sw\prj\RIDE\all_demo\usb_prop.o
                0x08014138                Joystick_SetProtocol
 .text.Joystick_NoData_Setup
                0x08014150       0x2c D:\svn\stm32\stm32_high\sw\prj\RIDE\all_demo\usb_prop.o
                0x08014150                Joystick_NoData_Setup
 .text.PowerOn  0x0801417c       0x34 D:\svn\stm32\stm32_high\sw\prj\RIDE\all_demo\usb_pwr.o
                0x0801417c                PowerOn
 .text.Suspend  0x080141b0       0x24 D:\svn\stm32\stm32_high\sw\prj\RIDE\all_demo\usb_pwr.o
                0x080141b0                Suspend
 .text.Resume_Init
                0x080141d4       0x20 D:\svn\stm32\stm32_high\sw\prj\RIDE\all_demo\usb_pwr.o
                0x080141d4                Resume_Init
 .text.Resume   0x080141f4       0xbc D:\svn\stm32\stm32_high\sw\prj\RIDE\all_demo\usb_pwr.o
                0x080141f4                Resume
 .text.Reset_Handler
                0x080142b0       0x44 D:\svn\stm32\stm32_high\sw\prj\RIDE\all_demo\startup_stm32f10x_hd.o
                0x080142b0                Reset_Handler
 .text.Default_Handler
                0x080142f4        0x2 D:\svn\stm32\stm32_high\sw\prj\RIDE\all_demo\startup_stm32f10x_hd.o
                0x080142f4                TIM8_TRG_COM_IRQHandler
                0x080142f4                TIM8_CC_IRQHandler
                0x080142f4                TIM1_CC_IRQHandler
                0x080142f4                TIM6_IRQHandler
                0x080142f4                PVD_IRQHandler
                0x080142f4                SDIO_IRQHandler
                0x080142f4                EXTI3_IRQHandler
                0x080142f4                I2C2_EV_IRQHandler
                0x080142f4                ADC1_2_IRQHandler
                0x080142f4                SPI1_IRQHandler
                0x080142f4                TAMPER_IRQHandler
                0x080142f4                TIM8_UP_IRQHandler
                0x080142f4                DMA2_Channel2_IRQHandler
                0x080142f4                DMA1_Channel4_IRQHandler
                0x080142f4                DMA1_Channel7_IRQHandler
                0x080142f4                CAN1_RX1_IRQHandler
                0x080142f4                UART5_IRQHandler
                0x080142f4                ADC3_IRQHandler
                0x080142f4                TIM4_IRQHandler
                0x080142f4                DMA2_Channel1_IRQHandler
                0x080142f4                I2C1_EV_IRQHandler
                0x080142f4                DMA1_Channel6_IRQHandler
                0x080142f4                UART4_IRQHandler
                0x080142f4                TIM3_IRQHandler
                0x080142f4                RCC_IRQHandler
                0x080142f4                TIM1_TRG_COM_IRQHandler
                0x080142f4                DMA1_Channel1_IRQHandler
                0x080142f4                Default_Handler
                0x080142f4                TIM7_IRQHandler
                0x080142f4                TIM5_IRQHandler
                0x080142f4                SPI2_IRQHandler
                0x080142f4                DMA1_Channel5_IRQHandler
                0x080142f4                USB_HP_CAN1_TX_IRQHandler
                0x080142f4                DMA1_Channel3_IRQHandler
                0x080142f4                FSMC_IRQHandler
                0x080142f4                TIM1_UP_IRQHandler
                0x080142f4                WWDG_IRQHandler
                0x080142f4                TIM1_BRK_IRQHandler
                0x080142f4                EXTI1_IRQHandler
                0x080142f4                RTCAlarm_IRQHandler
                0x080142f4                DMA2_Channel4_5_IRQHandler
                0x080142f4                I2C2_ER_IRQHandler
                0x080142f4                DMA1_Channel2_IRQHandler
                0x080142f4                TIM8_BRK_IRQHandler
                0x080142f4                CAN1_SCE_IRQHandler
                0x080142f4                FLASH_IRQHandler
                0x080142f4                SPI3_IRQHandler
                0x080142f4                I2C1_ER_IRQHandler
                0x080142f4                DMA2_Channel3_IRQHandler
 *fill*         0x080142f6        0x2 00
 .text.SystemInit
                0x080142f8      0x108 D:\svn\stm32\stm32_high\sw\prj\RIDE\all_demo\system_stm32f10x.o
                0x080142f8                SystemInit
 .text.USB_SIL_Init
                0x08014400       0x24 D:\svn\stm32\stm32_high\sw\prj\RIDE\all_demo\usb_sil.o
                0x08014400                USB_SIL_Init
 .text.USB_SIL_Write
                0x08014424       0x2c D:\svn\stm32\stm32_high\sw\prj\RIDE\all_demo\usb_sil.o
                0x08014424                USB_SIL_Write
 .text.Standard_GetConfiguration
                0x08014450       0x2c D:\svn\stm32\stm32_high\sw\prj\RIDE\all_demo\usb_core.o
                0x08014450                Standard_GetConfiguration
 .text.Standard_GetInterface
                0x0801447c       0x2c D:\svn\stm32\stm32_high\sw\prj\RIDE\all_demo\usb_core.o
                0x0801447c                Standard_GetInterface
 .text.Standard_GetStatus
                0x080144a8       0xcc D:\svn\stm32\stm32_high\sw\prj\RIDE\all_demo\usb_core.o
                0x080144a8                Standard_GetStatus
 .text.DataStageIn
                0x08014574       0xc4 D:\svn\stm32\stm32_high\sw\prj\RIDE\all_demo\usb_core.o
 .text.Standard_SetConfiguration
                0x08014638       0x48 D:\svn\stm32\stm32_high\sw\prj\RIDE\all_demo\usb_core.o
                0x08014638                Standard_SetConfiguration
 .text.Standard_SetInterface
                0x08014680       0x60 D:\svn\stm32\stm32_high\sw\prj\RIDE\all_demo\usb_core.o
                0x08014680                Standard_SetInterface
 .text.Standard_ClearFeature
                0x080146e0      0x12c D:\svn\stm32\stm32_high\sw\prj\RIDE\all_demo\usb_core.o
                0x080146e0                Standard_ClearFeature
 .text.Standard_SetEndPointFeature
                0x0801480c       0xc4 D:\svn\stm32\stm32_high\sw\prj\RIDE\all_demo\usb_core.o
                0x0801480c                Standard_SetEndPointFeature
 .text.Standard_SetDeviceFeature
                0x080148d0       0x24 D:\svn\stm32\stm32_high\sw\prj\RIDE\all_demo\usb_core.o
                0x080148d0                Standard_SetDeviceFeature
 .text.Standard_GetDescriptorData
                0x080148f4       0x1c D:\svn\stm32\stm32_high\sw\prj\RIDE\all_demo\usb_core.o
                0x080148f4                Standard_GetDescriptorData
 .text.Post0_Process
                0x08014910       0x44 D:\svn\stm32\stm32_high\sw\prj\RIDE\all_demo\usb_core.o
                0x08014910                Post0_Process
 .text.Out0_Process
                0x08014954      0x100 D:\svn\stm32\stm32_high\sw\prj\RIDE\all_demo\usb_core.o
                0x08014954                Out0_Process
 .text.Setup0_Process
                0x08014a54      0x360 D:\svn\stm32\stm32_high\sw\prj\RIDE\all_demo\usb_core.o
                0x08014a54                Setup0_Process
 .text.SetDeviceAddress
                0x08014db4       0x4c D:\svn\stm32\stm32_high\sw\prj\RIDE\all_demo\usb_core.o
                0x08014db4                SetDeviceAddress
 .text.In0_Process
                0x08014e00       0x68 D:\svn\stm32\stm32_high\sw\prj\RIDE\all_demo\usb_core.o
                0x08014e00                In0_Process
 .text.NOP_Process
                0x08014e68        0x4 D:\svn\stm32\stm32_high\sw\prj\RIDE\all_demo\usb_core.o
                0x08014e68                NOP_Process
 .text.USB_Init
                0x08014e6c       0x38 D:\svn\stm32\stm32_high\sw\prj\RIDE\all_demo\usb_init.o
                0x08014e6c                USB_Init
 .text.CTR_LP   0x08014ea4      0x260 D:\svn\stm32\stm32_high\sw\prj\RIDE\all_demo\usb_int.o
                0x08014ea4                CTR_LP
 .text.UserToPMABufferCopy
                0x08015104       0x34 D:\svn\stm32\stm32_high\sw\prj\RIDE\all_demo\usb_mem.o
                0x08015104                UserToPMABufferCopy
 .text.PMAToUserBufferCopy
                0x08015138       0x24 D:\svn\stm32\stm32_high\sw\prj\RIDE\all_demo\usb_mem.o
                0x08015138                PMAToUserBufferCopy
 .text.SetBTABLE
                0x0801515c       0x14 D:\svn\stm32\stm32_high\sw\prj\RIDE\all_demo\usb_regs.o
                0x0801515c                SetBTABLE
 .text.SetEPType
                0x08015170       0x1c D:\svn\stm32\stm32_high\sw\prj\RIDE\all_demo\usb_regs.o
                0x08015170                SetEPType
 .text.SetEPTxStatus
                0x0801518c       0x3c D:\svn\stm32\stm32_high\sw\prj\RIDE\all_demo\usb_regs.o
                0x0801518c                SetEPTxStatus
 .text.SetEPRxStatus
                0x080151c8       0x3c D:\svn\stm32\stm32_high\sw\prj\RIDE\all_demo\usb_regs.o
                0x080151c8                SetEPRxStatus
 .text.SetEPTxValid
                0x08015204       0x28 D:\svn\stm32\stm32_high\sw\prj\RIDE\all_demo\usb_regs.o
                0x08015204                SetEPTxValid
 .text.SetEPRxValid
                0x0801522c       0x28 D:\svn\stm32\stm32_high\sw\prj\RIDE\all_demo\usb_regs.o
                0x0801522c                SetEPRxValid
 .text.Clear_Status_Out
                0x08015254       0x24 D:\svn\stm32\stm32_high\sw\prj\RIDE\all_demo\usb_regs.o
                0x08015254                Clear_Status_Out
 .text.ClearDTOG_RX
                0x08015278       0x2c D:\svn\stm32\stm32_high\sw\prj\RIDE\all_demo\usb_regs.o
                0x08015278                ClearDTOG_RX
 .text.ClearDTOG_TX
                0x080152a4       0x2c D:\svn\stm32\stm32_high\sw\prj\RIDE\all_demo\usb_regs.o
                0x080152a4                ClearDTOG_TX
 .text.SetEPTxAddr
                0x080152d0       0x28 D:\svn\stm32\stm32_high\sw\prj\RIDE\all_demo\usb_regs.o
                0x080152d0                SetEPTxAddr
 .text.SetEPRxAddr
                0x080152f8       0x28 D:\svn\stm32\stm32_high\sw\prj\RIDE\all_demo\usb_regs.o
                0x080152f8                SetEPRxAddr
 .text.GetEPTxAddr
                0x08015320       0x20 D:\svn\stm32\stm32_high\sw\prj\RIDE\all_demo\usb_regs.o
                0x08015320                GetEPTxAddr
 .text.GetEPRxAddr
                0x08015340       0x20 D:\svn\stm32\stm32_high\sw\prj\RIDE\all_demo\usb_regs.o
                0x08015340                GetEPRxAddr
 .text.SetEPTxCount
                0x08015360       0x20 D:\svn\stm32\stm32_high\sw\prj\RIDE\all_demo\usb_regs.o
                0x08015360                SetEPTxCount
 .text.SetEPRxCount
                0x08015380       0x50 D:\svn\stm32\stm32_high\sw\prj\RIDE\all_demo\usb_regs.o
                0x08015380                SetEPRxCount
 .text.ByteSwap
                0x080153d0        0xc D:\svn\stm32\stm32_high\sw\prj\RIDE\all_demo\usb_regs.o
                0x080153d0                ByteSwap
 .text.NVIC_PriorityGroupConfig
                0x080153dc       0x14 D:\svn\stm32\stm32_high\sw\prj\RIDE\all_demo\misc.o
                0x080153dc                NVIC_PriorityGroupConfig
 .text.NVIC_Init
                0x080153f0       0x7c D:\svn\stm32\stm32_high\sw\prj\RIDE\all_demo\misc.o
                0x080153f0                NVIC_Init
 .text.NVIC_SetVectorTable
                0x0801546c       0x14 D:\svn\stm32\stm32_high\sw\prj\RIDE\all_demo\misc.o
                0x0801546c                NVIC_SetVectorTable
 .text.SysTick_CLKSourceConfig
                0x08015480       0x18 D:\svn\stm32\stm32_high\sw\prj\RIDE\all_demo\misc.o
                0x08015480                SysTick_CLKSourceConfig
 .text.ADC_Init
                0x08015498       0x50 D:\svn\stm32\stm32_high\sw\prj\RIDE\all_demo\stm32f10x_adc.o
                0x08015498                ADC_Init
 .text.ADC_Cmd  0x080154e8       0x18 D:\svn\stm32\stm32_high\sw\prj\RIDE\all_demo\stm32f10x_adc.o
                0x080154e8                ADC_Cmd
 .text.ADC_SoftwareStartConvCmd
                0x08015500       0x18 D:\svn\stm32\stm32_high\sw\prj\RIDE\all_demo\stm32f10x_adc.o
                0x08015500                ADC_SoftwareStartConvCmd
 .text.ADC_RegularChannelConfig
                0x08015518       0xb4 D:\svn\stm32\stm32_high\sw\prj\RIDE\all_demo\stm32f10x_adc.o
                0x08015518                ADC_RegularChannelConfig
 .text.ADC_GetConversionValue
                0x080155cc        0x8 D:\svn\stm32\stm32_high\sw\prj\RIDE\all_demo\stm32f10x_adc.o
                0x080155cc                ADC_GetConversionValue
 .text.ADC_GetFlagStatus
                0x080155d4        0xc D:\svn\stm32\stm32_high\sw\prj\RIDE\all_demo\stm32f10x_adc.o
                0x080155d4                ADC_GetFlagStatus
 .text.BKP_DeInit
                0x080155e0       0x14 D:\svn\stm32\stm32_high\sw\prj\RIDE\all_demo\stm32f10x_bkp.o
                0x080155e0                BKP_DeInit
 .text.BKP_WriteBackupRegister
                0x080155f4       0x20 D:\svn\stm32\stm32_high\sw\prj\RIDE\all_demo\stm32f10x_bkp.o
                0x080155f4                BKP_WriteBackupRegister
 .text.BKP_ReadBackupRegister
                0x08015614       0x20 D:\svn\stm32\stm32_high\sw\prj\RIDE\all_demo\stm32f10x_bkp.o
                0x08015614                BKP_ReadBackupRegister
 .text.CAN_DeInit
                0x08015634       0x40 D:\svn\stm32\stm32_high\sw\prj\RIDE\all_demo\stm32f10x_can.o
                0x08015634                CAN_DeInit
 .text.CAN_Init
                0x08015674       0xf4 D:\svn\stm32\stm32_high\sw\prj\RIDE\all_demo\stm32f10x_can.o
                0x08015674                CAN_Init
 .text.CAN_FilterInit
                0x08015768      0x10c D:\svn\stm32\stm32_high\sw\prj\RIDE\all_demo\stm32f10x_can.o
                0x08015768                CAN_FilterInit
 .text.CAN_StructInit
                0x08015874       0x28 D:\svn\stm32\stm32_high\sw\prj\RIDE\all_demo\stm32f10x_can.o
                0x08015874                CAN_StructInit
 .text.CAN_Transmit
                0x0801589c       0xe4 D:\svn\stm32\stm32_high\sw\prj\RIDE\all_demo\stm32f10x_can.o
                0x0801589c                CAN_Transmit
 .text.CAN_TransmitStatus
                0x08015980       0x74 D:\svn\stm32\stm32_high\sw\prj\RIDE\all_demo\stm32f10x_can.o
                0x08015980                CAN_TransmitStatus
 .text.CAN_Receive
                0x080159f4       0xbc D:\svn\stm32\stm32_high\sw\prj\RIDE\all_demo\stm32f10x_can.o
                0x080159f4                CAN_Receive
 .text.CAN_MessagePending
                0x08015ab0       0x18 D:\svn\stm32\stm32_high\sw\prj\RIDE\all_demo\stm32f10x_can.o
                0x08015ab0                CAN_MessagePending
 .text.CAN_ITConfig
                0x08015ac8       0x14 D:\svn\stm32\stm32_high\sw\prj\RIDE\all_demo\stm32f10x_can.o
                0x08015ac8                CAN_ITConfig
 .text.CAN_ClearITPendingBit
                0x08015adc       0xbc D:\svn\stm32\stm32_high\sw\prj\RIDE\all_demo\stm32f10x_can.o
                0x08015adc                CAN_ClearITPendingBit
 .text.EXTI_Init
                0x08015b98       0x94 D:\svn\stm32\stm32_high\sw\prj\RIDE\all_demo\stm32f10x_exti.o
                0x08015b98                EXTI_Init
 .text.EXTI_GetITStatus
                0x08015c2c       0x20 D:\svn\stm32\stm32_high\sw\prj\RIDE\all_demo\stm32f10x_exti.o
                0x08015c2c                EXTI_GetITStatus
 .text.EXTI_ClearITPendingBit
                0x08015c4c        0xc D:\svn\stm32\stm32_high\sw\prj\RIDE\all_demo\stm32f10x_exti.o
                0x08015c4c                EXTI_ClearITPendingBit
 .text.FLASH_SetLatency
                0x08015c58       0x14 D:\svn\stm32\stm32_high\sw\prj\RIDE\all_demo\stm32f10x_flash.o
                0x08015c58                FLASH_SetLatency
 .text.FLASH_PrefetchBufferCmd
                0x08015c6c       0x18 D:\svn\stm32\stm32_high\sw\prj\RIDE\all_demo\stm32f10x_flash.o
                0x08015c6c                FLASH_PrefetchBufferCmd
 .text.FSMC_NORSRAMInit
                0x08015c84       0xd0 D:\svn\stm32\stm32_high\sw\prj\RIDE\all_demo\stm32f10x_fsmc.o
                0x08015c84                FSMC_NORSRAMInit
 .text.FSMC_NORSRAMCmd
                0x08015d54       0x2c D:\svn\stm32\stm32_high\sw\prj\RIDE\all_demo\stm32f10x_fsmc.o
                0x08015d54                FSMC_NORSRAMCmd
 .text.GPIO_Init
                0x08015d80       0xc4 D:\svn\stm32\stm32_high\sw\prj\RIDE\all_demo\stm32f10x_gpio.o
                0x08015d80                GPIO_Init
 .text.GPIO_ReadInputDataBit
                0x08015e44        0xc D:\svn\stm32\stm32_high\sw\prj\RIDE\all_demo\stm32f10x_gpio.o
                0x08015e44                GPIO_ReadInputDataBit
 .text.GPIO_ReadOutputDataBit
                0x08015e50        0xc D:\svn\stm32\stm32_high\sw\prj\RIDE\all_demo\stm32f10x_gpio.o
                0x08015e50                GPIO_ReadOutputDataBit
 .text.GPIO_ReadOutputData
                0x08015e5c        0x8 D:\svn\stm32\stm32_high\sw\prj\RIDE\all_demo\stm32f10x_gpio.o
                0x08015e5c                GPIO_ReadOutputData
 .text.GPIO_SetBits
                0x08015e64        0x4 D:\svn\stm32\stm32_high\sw\prj\RIDE\all_demo\stm32f10x_gpio.o
                0x08015e64                GPIO_SetBits
 .text.GPIO_ResetBits
                0x08015e68        0x4 D:\svn\stm32\stm32_high\sw\prj\RIDE\all_demo\stm32f10x_gpio.o
                0x08015e68                GPIO_ResetBits
 .text.GPIO_WriteBit
                0x08015e6c        0xc D:\svn\stm32\stm32_high\sw\prj\RIDE\all_demo\stm32f10x_gpio.o
                0x08015e6c                GPIO_WriteBit
 .text.GPIO_PinRemapConfig
                0x08015e78       0x7c D:\svn\stm32\stm32_high\sw\prj\RIDE\all_demo\stm32f10x_gpio.o
                0x08015e78                GPIO_PinRemapConfig
 .text.GPIO_EXTILineConfig
                0x08015ef4       0x40 D:\svn\stm32\stm32_high\sw\prj\RIDE\all_demo\stm32f10x_gpio.o
                0x08015ef4                GPIO_EXTILineConfig
 .text.PWR_BackupAccessCmd
                0x08015f34        0xc D:\svn\stm32\stm32_high\sw\prj\RIDE\all_demo\stm32f10x_pwr.o
                0x08015f34                PWR_BackupAccessCmd
 .text.RCC_DeInit
                0x08015f40       0x40 D:\svn\stm32\stm32_high\sw\prj\RIDE\all_demo\stm32f10x_rcc.o
                0x08015f40                RCC_DeInit
 .text.RCC_HSEConfig
                0x08015f80       0x3c D:\svn\stm32\stm32_high\sw\prj\RIDE\all_demo\stm32f10x_rcc.o
                0x08015f80                RCC_HSEConfig
 .text.RCC_PLLConfig
                0x08015fbc       0x18 D:\svn\stm32\stm32_high\sw\prj\RIDE\all_demo\stm32f10x_rcc.o
                0x08015fbc                RCC_PLLConfig
 .text.RCC_PLLCmd
                0x08015fd4        0xc D:\svn\stm32\stm32_high\sw\prj\RIDE\all_demo\stm32f10x_rcc.o
                0x08015fd4                RCC_PLLCmd
 .text.RCC_SYSCLKConfig
                0x08015fe0       0x14 D:\svn\stm32\stm32_high\sw\prj\RIDE\all_demo\stm32f10x_rcc.o
                0x08015fe0                RCC_SYSCLKConfig
 .text.RCC_GetSYSCLKSource
                0x08015ff4       0x10 D:\svn\stm32\stm32_high\sw\prj\RIDE\all_demo\stm32f10x_rcc.o
                0x08015ff4                RCC_GetSYSCLKSource
 .text.RCC_HCLKConfig
                0x08016004       0x14 D:\svn\stm32\stm32_high\sw\prj\RIDE\all_demo\stm32f10x_rcc.o
                0x08016004                RCC_HCLKConfig
 .text.RCC_PCLK1Config
                0x08016018       0x14 D:\svn\stm32\stm32_high\sw\prj\RIDE\all_demo\stm32f10x_rcc.o
                0x08016018                RCC_PCLK1Config
 .text.RCC_PCLK2Config
                0x0801602c       0x14 D:\svn\stm32\stm32_high\sw\prj\RIDE\all_demo\stm32f10x_rcc.o
                0x0801602c                RCC_PCLK2Config
 .text.RCC_USBCLKConfig
                0x08016040        0xc D:\svn\stm32\stm32_high\sw\prj\RIDE\all_demo\stm32f10x_rcc.o
                0x08016040                RCC_USBCLKConfig
 .text.RCC_LSEConfig
                0x0801604c       0x2c D:\svn\stm32\stm32_high\sw\prj\RIDE\all_demo\stm32f10x_rcc.o
                0x0801604c                RCC_LSEConfig
 .text.RCC_RTCCLKConfig
                0x08016078       0x10 D:\svn\stm32\stm32_high\sw\prj\RIDE\all_demo\stm32f10x_rcc.o
                0x08016078                RCC_RTCCLKConfig
 .text.RCC_RTCCLKCmd
                0x08016088        0xc D:\svn\stm32\stm32_high\sw\prj\RIDE\all_demo\stm32f10x_rcc.o
                0x08016088                RCC_RTCCLKCmd
 .text.RCC_GetClocksFreq
                0x08016094       0xac D:\svn\stm32\stm32_high\sw\prj\RIDE\all_demo\stm32f10x_rcc.o
                0x08016094                RCC_GetClocksFreq
 .text.RCC_AHBPeriphClockCmd
                0x08016140       0x1c D:\svn\stm32\stm32_high\sw\prj\RIDE\all_demo\stm32f10x_rcc.o
                0x08016140                RCC_AHBPeriphClockCmd
 .text.RCC_APB2PeriphClockCmd
                0x0801615c       0x1c D:\svn\stm32\stm32_high\sw\prj\RIDE\all_demo\stm32f10x_rcc.o
                0x0801615c                RCC_APB2PeriphClockCmd
 .text.RCC_APB1PeriphClockCmd
                0x08016178       0x1c D:\svn\stm32\stm32_high\sw\prj\RIDE\all_demo\stm32f10x_rcc.o
                0x08016178                RCC_APB1PeriphClockCmd
 .text.RCC_APB1PeriphResetCmd
                0x08016194       0x1c D:\svn\stm32\stm32_high\sw\prj\RIDE\all_demo\stm32f10x_rcc.o
                0x08016194                RCC_APB1PeriphResetCmd
 .text.RCC_BackupResetCmd
                0x080161b0        0xc D:\svn\stm32\stm32_high\sw\prj\RIDE\all_demo\stm32f10x_rcc.o
                0x080161b0                RCC_BackupResetCmd
 .text.RCC_GetFlagStatus
                0x080161bc       0x2c D:\svn\stm32\stm32_high\sw\prj\RIDE\all_demo\stm32f10x_rcc.o
                0x080161bc                RCC_GetFlagStatus
 .text.RCC_WaitForHSEStartUp
                0x080161e8       0x3c D:\svn\stm32\stm32_high\sw\prj\RIDE\all_demo\stm32f10x_rcc.o
                0x080161e8                RCC_WaitForHSEStartUp
 .text.RCC_ClearFlag
                0x08016224       0x10 D:\svn\stm32\stm32_high\sw\prj\RIDE\all_demo\stm32f10x_rcc.o
                0x08016224                RCC_ClearFlag
 .text.RTC_ITConfig
                0x08016234       0x20 D:\svn\stm32\stm32_high\sw\prj\RIDE\all_demo\stm32f10x_rtc.o
                0x08016234                RTC_ITConfig
 .text.RTC_EnterConfigMode
                0x08016254       0x14 D:\svn\stm32\stm32_high\sw\prj\RIDE\all_demo\stm32f10x_rtc.o
                0x08016254                RTC_EnterConfigMode
 .text.RTC_ExitConfigMode
                0x08016268       0x18 D:\svn\stm32\stm32_high\sw\prj\RIDE\all_demo\stm32f10x_rtc.o
                0x08016268                RTC_ExitConfigMode
 .text.RTC_GetCounter
                0x08016280       0x28 D:\svn\stm32\stm32_high\sw\prj\RIDE\all_demo\stm32f10x_rtc.o
                0x08016280                RTC_GetCounter
 .text.RTC_SetCounter
                0x080162a8       0x20 D:\svn\stm32\stm32_high\sw\prj\RIDE\all_demo\stm32f10x_rtc.o
                0x080162a8                RTC_SetCounter
 .text.RTC_SetPrescaler
                0x080162c8       0x20 D:\svn\stm32\stm32_high\sw\prj\RIDE\all_demo\stm32f10x_rtc.o
                0x080162c8                RTC_SetPrescaler
 .text.RTC_WaitForLastTask
                0x080162e8       0x10 D:\svn\stm32\stm32_high\sw\prj\RIDE\all_demo\stm32f10x_rtc.o
                0x080162e8                RTC_WaitForLastTask
 .text.RTC_WaitForSynchro
                0x080162f8       0x20 D:\svn\stm32\stm32_high\sw\prj\RIDE\all_demo\stm32f10x_rtc.o
                0x080162f8                RTC_WaitForSynchro
 .text.RTC_GetITStatus
                0x08016318       0x28 D:\svn\stm32\stm32_high\sw\prj\RIDE\all_demo\stm32f10x_rtc.o
                0x08016318                RTC_GetITStatus
 .text.RTC_ClearITPendingBit
                0x08016340       0x14 D:\svn\stm32\stm32_high\sw\prj\RIDE\all_demo\stm32f10x_rtc.o
                0x08016340                RTC_ClearITPendingBit
 .text.SPI_Init
                0x08016354       0x48 D:\svn\stm32\stm32_high\sw\prj\RIDE\all_demo\stm32f10x_spi.o
                0x08016354                SPI_Init
 .text.SPI_Cmd  0x0801639c       0x20 D:\svn\stm32\stm32_high\sw\prj\RIDE\all_demo\stm32f10x_spi.o
                0x0801639c                SPI_Cmd
 .text.SPI_I2S_SendData
                0x080163bc        0x4 D:\svn\stm32\stm32_high\sw\prj\RIDE\all_demo\stm32f10x_spi.o
                0x080163bc                SPI_I2S_SendData
 .text.SPI_I2S_ReceiveData
                0x080163c0        0x8 D:\svn\stm32\stm32_high\sw\prj\RIDE\all_demo\stm32f10x_spi.o
                0x080163c0                SPI_I2S_ReceiveData
 .text.SPI_I2S_GetFlagStatus
                0x080163c8        0xc D:\svn\stm32\stm32_high\sw\prj\RIDE\all_demo\stm32f10x_spi.o
                0x080163c8                SPI_I2S_GetFlagStatus
 .text.TIM_TimeBaseInit
                0x080163d4       0xac D:\svn\stm32\stm32_high\sw\prj\RIDE\all_demo\stm32f10x_tim.o
                0x080163d4                TIM_TimeBaseInit
 .text.TIM_Cmd  0x08016480       0x20 D:\svn\stm32\stm32_high\sw\prj\RIDE\all_demo\stm32f10x_tim.o
                0x08016480                TIM_Cmd
 .text.TIM_ITConfig
                0x080164a0       0x18 D:\svn\stm32\stm32_high\sw\prj\RIDE\all_demo\stm32f10x_tim.o
                0x080164a0                TIM_ITConfig
 .text.TIM_ARRPreloadConfig
                0x080164b8       0x20 D:\svn\stm32\stm32_high\sw\prj\RIDE\all_demo\stm32f10x_tim.o
                0x080164b8                TIM_ARRPreloadConfig
 .text.TIM_ClearFlag
                0x080164d8        0xc D:\svn\stm32\stm32_high\sw\prj\RIDE\all_demo\stm32f10x_tim.o
                0x080164d8                TIM_ClearFlag
 .text.TIM_ClearITPendingBit
                0x080164e4        0xc D:\svn\stm32\stm32_high\sw\prj\RIDE\all_demo\stm32f10x_tim.o
                0x080164e4                TIM_ClearITPendingBit
 .text.USART_Init
                0x080164f0       0xec D:\svn\stm32\stm32_high\sw\prj\RIDE\all_demo\stm32f10x_usart.o
                0x080164f0                USART_Init
 .text.USART_Cmd
                0x080165dc       0x20 D:\svn\stm32\stm32_high\sw\prj\RIDE\all_demo\stm32f10x_usart.o
                0x080165dc                USART_Cmd
 .text.USART_ITConfig
                0x080165fc       0x3c D:\svn\stm32\stm32_high\sw\prj\RIDE\all_demo\stm32f10x_usart.o
                0x080165fc                USART_ITConfig
 .text.USART_SendData
                0x08016638        0xc D:\svn\stm32\stm32_high\sw\prj\RIDE\all_demo\stm32f10x_usart.o
                0x08016638                USART_SendData
 .text.USART_ReceiveData
                0x08016644        0xc D:\svn\stm32\stm32_high\sw\prj\RIDE\all_demo\stm32f10x_usart.o
                0x08016644                USART_ReceiveData
 .text.USART_GetFlagStatus
                0x08016650        0xc D:\svn\stm32\stm32_high\sw\prj\RIDE\all_demo\stm32f10x_usart.o
                0x08016650                USART_GetFlagStatus
 .text.USART_GetITStatus
                0x0801665c       0x54 D:\svn\stm32\stm32_high\sw\prj\RIDE\all_demo\stm32f10x_usart.o
                0x0801665c                USART_GetITStatus
 .text.USART_ClearITPendingBit
                0x080166b0       0x18 D:\svn\stm32\stm32_high\sw\prj\RIDE\all_demo\stm32f10x_usart.o
                0x080166b0                USART_ClearITPendingBit
 .text._sbrk    0x080166c8       0x30 C:\Program Files\Raisonance\Ride\Lib\ARM\std_sbrk_thumb.lib(sbrk.o)
                0x080166c8                _sbrk
 *(.rodata)
 .rodata        0x080166f8        0x4 D:\svn\stm32\stm32_high\sw\prj\RIDE\all_demo\ff.o
 .rodata        0x080166fc     0x1694 D:\svn\stm32\stm32_high\sw\prj\RIDE\all_demo\font.o
                0x080166fc                asc2_1206
                0x08016b70                asc2_1608
                0x08017160                BIG_ASCII
 .rodata        0x08017d90     0xf8e8 D:\svn\stm32\stm32_high\sw\prj\RIDE\all_demo\icon.o
                0x08017d90                icon_demo
 .rodata        0x08027678       0x20 D:\svn\stm32\stm32_high\sw\prj\RIDE\all_demo\led.o
                0x08027678                led_bottom_group
                0x08027690                led_core_group
 .rodata        0x08027698      0xc70 D:\svn\stm32\stm32_high\sw\prj\RIDE\all_demo\main.o
                0x08027698                gbl_service
                0x080281d8                gbl_main_service
 .rodata        0x08028308       0x18 D:\svn\stm32\stm32_high\sw\prj\RIDE\all_demo\nrf24l01.o
                0x08028310                RX_ADDRESS
                0x08028318                TX_ADDRESS
 .rodata        0x08028320       0xc4 D:\svn\stm32\stm32_high\sw\prj\RIDE\all_demo\usb_desc.o
                0x08028320                Joystick_DeviceDescriptor
                0x08028334                Joystick_ConfigDescriptor
                0x08028358                Joystick_ReportDescriptor
                0x080283a4                Joystick_StringLangID
                0x080283a8                Joystick_StringVendor
                0x080283c4                Joystick_StringProduct
 .rodata        0x080283e4       0x20 c:/program files/raisonance/ride/arm-gcc/bin/../lib/gcc/arm-none-eabi/4.5.2/../../../../arm-none-eabi/lib/thumb2\libc.a(lib_a-svfprintf.o)
 *fill*         0x08028404        0x4 00
 .rodata        0x08028408      0x128 c:/program files/raisonance/ride/arm-gcc/bin/../lib/gcc/arm-none-eabi/4.5.2/../../../../arm-none-eabi/lib/thumb2\libc.a(lib_a-mprec.o)
                0x08028418                __mprec_tens
                0x080284e0                __mprec_bigtens
                0x08028508                __mprec_tinytens
 .rodata        0x08028530       0x20 c:/program files/raisonance/ride/arm-gcc/bin/../lib/gcc/arm-none-eabi/4.5.2/../../../../arm-none-eabi/lib/thumb2\libc.a(lib_a-svfiprintf.o)
 *(.rodata*)
 .rodata.str1.4
                0x08028550        0xb D:\svn\stm32\stm32_high\sw\prj\RIDE\all_demo\ff.o
                                  0xc (size before relaxing)
 *fill*         0x0802855b        0x1 00
 .rodata.str1.4
                0x0802855c       0x49 D:\svn\stm32\stm32_high\sw\prj\RIDE\all_demo\lcd28.o
                                 0x4c (size before relaxing)
 *fill*         0x080285a5        0x3 00
 .rodata.str1.4
                0x080285a8       0x19 D:\svn\stm32\stm32_high\sw\prj\RIDE\all_demo\lcd32.o
                                 0x4c (size before relaxing)
 *fill*         0x080285c1        0x3 00
 .rodata.str1.4
                0x080285c4       0x60 D:\svn\stm32\stm32_high\sw\prj\RIDE\all_demo\lcd43.o
                                 0x80 (size before relaxing)
 .rodata.str1.4
                0x08028624      0x15b D:\svn\stm32\stm32_high\sw\prj\RIDE\all_demo\lcd70.o
                                0x1c4 (size before relaxing)
 *fill*         0x0802877f        0x1 00
 .rodata.str1.4
                0x08028780     0x10ca D:\svn\stm32\stm32_high\sw\prj\RIDE\all_demo\main.o
                               0x10d0 (size before relaxing)
 *fill*         0x0802984a        0x2 00
 .rodata.str1.4
                0x0802984c       0x51 D:\svn\stm32\stm32_high\sw\prj\RIDE\all_demo\mmc_sd.o
                                 0x54 (size before relaxing)
 *fill*         0x0802989d        0x3 00
 .rodata.str1.4
                0x080298a0       0x9e D:\svn\stm32\stm32_high\sw\prj\RIDE\all_demo\rtc.o
                                 0xa0 (size before relaxing)
 *fill*         0x0802993e        0x2 00
 .rodata.str1.4
                0x08029940      0x268 D:\svn\stm32\stm32_high\sw\prj\RIDE\all_demo\touch.o
 .rodata.str1.4
                0x08029ba8        0x2 c:/program files/raisonance/ride/arm-gcc/bin/../lib/gcc/arm-none-eabi/4.5.2/../../../../arm-none-eabi/lib/thumb2\libc.a(lib_a-impure.o)
                                  0x4 (size before relaxing)
 *fill*         0x08029baa        0x2 00
 .rodata.str1.4
                0x08029bac       0x42 c:/program files/raisonance/ride/arm-gcc/bin/../lib/gcc/arm-none-eabi/4.5.2/../../../../arm-none-eabi/lib/thumb2\libc.a(lib_a-svfprintf.o)
                                 0x44 (size before relaxing)
 *fill*         0x08029bee        0x2 00
 .rodata.str1.4
                0x08029bf0       0x10 c:/program files/raisonance/ride/arm-gcc/bin/../lib/gcc/arm-none-eabi/4.5.2/../../../../arm-none-eabi/lib/thumb2\libc.a(lib_a-dtoa.o)
                                 0x14 (size before relaxing)
 .rodata.str1.4
                0x08029c00        0xa c:/program files/raisonance/ride/arm-gcc/bin/../lib/gcc/arm-none-eabi/4.5.2/../../../../arm-none-eabi/lib/thumb2\libc.a(lib_a-locale.o)
                                 0x14 (size before relaxing)
 .rodata.str1.4
                0x00000000       0x30 c:/program files/raisonance/ride/arm-gcc/bin/../lib/gcc/arm-none-eabi/4.5.2/../../../../arm-none-eabi/lib/thumb2\libc.a(lib_a-svfiprintf.o)
 *fill*         0x08029c0a        0x2 00
 .rodata.str1.4
                0x08029c0c        0x8 c:/program files/raisonance/ride/arm-gcc/bin/../lib/gcc/arm-none-eabi/4.5.2/../../../../arm-none-eabi/lib/thumb2\libm.a(lib_a-w_sqrt.o)
 *(.glue_7)
 .glue_7        0x00000000        0x0 linker stubs
 *(.glue_7t)
 .glue_7t       0x00000000        0x0 linker stubs
                0x08029c14                . = ALIGN (0x4)
 *(.init)
                0x08029c14                . = ALIGN (0x4)
                0x08029c14                __preinit_array_start = .
 *(.preinit_array)
                0x08029c14                __preinit_array_end = .
                0x08029c14                . = ALIGN (0x4)
                0x08029c14                __init_array_start = .
 *(SORT(.init_array.*))
 *(.init_array)
                0x08029c14                __init_array_end = .
                0x08029c14                . = ALIGN (0x4)
 *(.fini)
                0x08029c14                . = ALIGN (0x4)
                0x08029c14                __fini_array_start = .
 *(.fini_array)
 *(SORT(.fini_array.*))
                0x08029c14                __fini_array_end = .
                0x08029c14                . = ALIGN (0x4)
 *crtbegin.o(.ctors)
 *(EXCLUDE_FILE(*crtend.o) .ctors)
 *(SORT(.ctors.*))
 *crtend.o(.ctors)
                0x08029c14                . = ALIGN (0x4)
 *crtbegin.o(.dtors)
 *(EXCLUDE_FILE(*crtend.o) .dtors)
 *(SORT(.dtors.*))
 *crtend.o(.dtors)
                0x08029c14                . = ALIGN (0x4)
                0x08029c14                _etext = .
                0x08029c14                _sidata = _etext

.vfp11_veneer   0x08029c14        0x0
 .vfp11_veneer  0x00000000        0x0 linker stubs

.v4_bx          0x08029c14        0x0
 .v4_bx         0x00000000        0x0 linker stubs

.flashpatch     0x00000000        0x0
                0x00000000                . = ALIGN (0x4)
 *(.flashpatch)
                0x00000000                . = ALIGN (0x4)

.endflash       0x00000000        0x0
                0x00000000                . = ALIGN (0x4)
 *(.endflash)
                0x00000000                . = ALIGN (0x4)
                0x00000000                _e_endflash = .

.data           0x20000000      0x704 load address 0x08029c14
                0x20000000                . = ALIGN (0x4)
                0x20000000                _sdata = .
                0x20000000                _data = .
 *(.data)
 .data          0x20000000       0x28 D:\svn\stm32\stm32_high\sw\prj\RIDE\all_demo\lcd43.o
                0x20000000                HDP
                0x20000004                VDP
                0x20000008                HT
                0x2000000c                HPS
                0x20000010                HPW
                0x20000014                LPS
                0x20000018                VT
                0x2000001c                VPS
                0x20000020                VPW
                0x20000024                FPS
 .data          0x20000028       0x18 D:\svn\stm32\stm32_high\sw\prj\RIDE\all_demo\lcd70.o
                0x20000028                HDP_70
                0x2000002c                VDP_70
                0x20000030                HPW_70
                0x20000031                VPW_70
                0x20000032                brightness
                0x20000033                contrast
                0x20000034                saturation
                0x20000038                LPS_70
                0x2000003c                FPS_70
 .data          0x20000040        0xc D:\svn\stm32\stm32_high\sw\prj\RIDE\all_demo\lcd.o
                0x20000040                curr_tft_lcd
                0x20000044                POINT_COLOR
                0x20000048                BACK_COLOR
 .data          0x2000004c        0x1 D:\svn\stm32\stm32_high\sw\prj\RIDE\all_demo\main.o
                0x2000004c                s_current_service
 *fill*         0x2000004d        0x3 00
 .data          0x20000050       0x10 D:\svn\stm32\stm32_high\sw\prj\RIDE\all_demo\timer.o
                0x20000050                gbl_ar_timer_service
 .data          0x20000060       0x1c D:\svn\stm32\stm32_high\sw\prj\RIDE\all_demo\usart.o
                0x20000064                gbl_ar_usart_service
 .data          0x2000007c       0x1c D:\svn\stm32\stm32_high\sw\prj\RIDE\all_demo\usb_desc.o
                0x2000007c                Joystick_StringSerial
 .data          0x20000098       0x38 D:\svn\stm32\stm32_high\sw\prj\RIDE\all_demo\usb_istr.o
                0x20000098                pEpInt_IN
                0x200000b4                pEpInt_OUT
 .data          0x200000d0       0x98 D:\svn\stm32\stm32_high\sw\prj\RIDE\all_demo\usb_prop.o
                0x200000d0                Mouse_Hid_Descriptor
                0x200000d8                Joystick_Report_Descriptor
                0x200000e0                String_Descriptor
                0x20000100                Config_Descriptor
                0x20000108                Device_Descriptor
                0x20000110                Device_Property
                0x20000140                Device_Table
                0x20000144                User_Standard_Requests
 .data          0x20000168        0x1 D:\svn\stm32\stm32_high\sw\prj\RIDE\all_demo\usb_pwr.o
                0x20000168                fSuspendEnabled
 *fill*         0x20000169        0x3 00
 .data          0x2000016c       0x14 D:\svn\stm32\stm32_high\sw\prj\RIDE\all_demo\stm32f10x_rcc.o
 .data          0x20000180       0xf4 c:/program files/raisonance/ride/arm-gcc/bin/../lib/gcc/arm-none-eabi/4.5.2/../../../../arm-none-eabi/lib/thumb2\libc.a(lib_a-impure.o)
                0x20000180                _impure_ptr
 .data          0x20000274       0x7c c:/program files/raisonance/ride/arm-gcc/bin/../lib/gcc/arm-none-eabi/4.5.2/../../../../arm-none-eabi/lib/thumb2\libc.a(lib_a-locale.o)
                0x20000294                __mb_cur_max
 .data          0x200002f0      0x410 c:/program files/raisonance/ride/arm-gcc/bin/../lib/gcc/arm-none-eabi/4.5.2/../../../../arm-none-eabi/lib/thumb2\libc.a(lib_a-mallocr.o)
                0x200002f0                __malloc_av_
                0x200006f8                __malloc_sbrk_base
                0x200006fc                __malloc_trim_threshold
 .data          0x20000700        0x1 c:/program files/raisonance/ride/arm-gcc/bin/../lib/gcc/arm-none-eabi/4.5.2/../../../../arm-none-eabi/lib/thumb2\libm.a(lib_a-s_lib_ver.o)
                0x20000700                __fdlib_version
 *(.data.*)
 *(.RAMtext)
                0x20000704                . = ALIGN (0x4)
 *fill*         0x20000701        0x3 00
                0x20000704                _edata = .
                0x0802a318                _eidata = (_sidata + (_edata - _sdata))
                0x08040000                _lastdataromaddress = 0x8040000
                0x00000000                ___toobig___ = (_eidata > _lastdataromaddress)?0x1:0x0
                0x00000000                ___SK_limit_msg___ = (___toobig___ & ___SK_limit___)?!!! RKit-ARM Lite limit reached. See !Starter Kit Limited! linker option !!!:0x0
                0x00000000                ___toobigmsg___ = ___toobig___?!!!!!!!!! FLASH IS FULL !!!!!!!!!:0x0

.bss            0x20000704     0x24f8 load address 0x0802a318
                0x20000704                . = ALIGN (0x4)
                0x20000704                _sbss = .
                0x20000704                _bss = .
 *(.bss)
 .bss           0x20000704        0x4 D:\svn\stm32\stm32_high\sw\prj\RIDE\all_demo\can.o
                0x20000704                Result
 .bss           0x20000708        0x8 D:\svn\stm32\stm32_high\sw\prj\RIDE\all_demo\ff.o
 .bss           0x20000710        0x8 D:\svn\stm32\stm32_high\sw\prj\RIDE\all_demo\key.o
                0x20000710                gbl_ar_exti_key_service
 .bss           0x20000718        0x2 D:\svn\stm32\stm32_high\sw\prj\RIDE\all_demo\lcd.o
                0x20000718                lcd_id
 *fill*         0x2000071a        0x2 00
 .bss           0x2000071c       0x40 D:\svn\stm32\stm32_high\sw\prj\RIDE\all_demo\main.o
                0x2000071c                s_menu_level
                0x20000724                path
 .bss           0x2000075c        0x1 D:\svn\stm32\stm32_high\sw\prj\RIDE\all_demo\mmc_sd.o
                0x2000075c                SD_Type
 *fill*         0x2000075d        0x3 00
 .bss           0x20000760        0x8 D:\svn\stm32\stm32_high\sw\prj\RIDE\all_demo\rtc.o
                0x20000760                gbl_ar_rtc_service
 .bss           0x20000768        0x2 D:\svn\stm32\stm32_high\sw\prj\RIDE\all_demo\touch.o
                0x20000768                demo_selected_pen_color
 *fill*         0x2000076a        0x2 00
 .bss           0x2000076c       0x88 D:\svn\stm32\stm32_high\sw\prj\RIDE\all_demo\usart.o
                0x2000076c                usart1_dma_transfering
 .bss           0x200007f4        0x1 D:\svn\stm32\stm32_high\sw\prj\RIDE\all_demo\usb_istr.o
                0x200007f4                bIntPackSOF
 *fill*         0x200007f5        0x3 00
 .bss           0x200007f8        0x4 D:\svn\stm32\stm32_high\sw\prj\RIDE\all_demo\usb_pwr.o
                0x200007f8                bDeviceState
 .bss           0x200007fc        0x1 D:\svn\stm32\stm32_high\sw\prj\RIDE\all_demo\usb_core.o
                0x200007fc                Data_Mul_MaxPacketSize
 *fill*         0x200007fd        0x3 00
 .bss           0x20000800       0x34 c:/program files/raisonance/ride/arm-gcc/bin/../lib/gcc/arm-none-eabi/4.5.2/../../../../arm-none-eabi/lib/thumb2\libc.a(lib_a-mallocr.o)
                0x20000800                __malloc_top_pad
                0x20000804                __malloc_current_mallinfo
                0x2000082c                __malloc_max_sbrked_mem
                0x20000830                __malloc_max_total_mem
 .bss           0x20000834        0x4 C:\Program Files\Raisonance\Ride\Lib\ARM\std_sbrk_thumb.lib(sbrk.o)
 *(COMMON)
 COMMON         0x20000838        0x1 D:\svn\stm32\stm32_high\sw\prj\RIDE\all_demo\hw_config.o
                0x20000838                HSEStartUpStatus
 *fill*         0x20000839        0x3 00
 COMMON         0x2000083c      0x689 D:\svn\stm32\stm32_high\sw\prj\RIDE\all_demo\main.o
                0x2000083c                dirs
                0x20000858                fs
                0x20000a88                finfo
                0x20000aa0                fsrc
                0x20000cc4                buffer
                0x20000ec4                res
 *fill*         0x20000ec5        0x1 00
 COMMON         0x20000ec6        0xc D:\svn\stm32\stm32_high\sw\prj\RIDE\all_demo\stm32f10x_it.o
                0x20000ec6                CAN_DATA7
                0x20000ec7                CAN_DATA3
                0x20000ec8                CAN_DATA2
                0x20000ec9                CAN_DATA1
                0x20000eca                CAN_DATA6
                0x20000ecb                CanFlag
                0x20000ecc                CAN_ID
                0x20000ece                CAN_DATA5
                0x20000ecf                CAN_DATA0
                0x20000ed0                CAN_DATA4
                0x20000ed1                Display
 *fill*         0x20000ed2        0x2 00
 COMMON         0x20000ed4       0x18 D:\svn\stm32\stm32_high\sw\prj\RIDE\all_demo\touch.o
                0x20000ed4                Pen_Point
 COMMON         0x20000eec     0x1cc4 D:\svn\stm32\stm32_high\sw\prj\RIDE\all_demo\usart.o
                0x20000eec                gbl_usart1_rx_buff_proc
                0x20000f30                gbl_qlist_usart1_rx
                0x20000f40                gbl_usart1_rx_buff_dma
                0x20000f80                gbl_qdata_usart1_tx
                0x20001380                gbl_qlist_usart1_tx
                0x20001390                gbl_qdata_usart1_rx_free
                0x20001430                gbl_qlist_usart1_tx_free
                0x20001440                gbl_qdata_usart1_tx_free
                0x20001840                gbl_qlist_usart1_rx_free
                0x20001850                gbl_qdata_usart1_rx
                0x200018f0                gbl_usart1_tx_buff_dma
                0x20001930                gbl_usart1_rx_buff
                0x20001bb0                gbl_usart1_tx_buff
 COMMON         0x20002bb0        0x2 D:\svn\stm32\stm32_high\sw\prj\RIDE\all_demo\usb_istr.o
                0x20002bb0                wIstr
 *fill*         0x20002bb2        0x2 00
 COMMON         0x20002bb4        0x4 D:\svn\stm32\stm32_high\sw\prj\RIDE\all_demo\usb_prop.o
                0x20002bb4                ProtocolValue
 COMMON         0x20002bb8        0x2 D:\svn\stm32\stm32_high\sw\prj\RIDE\all_demo\usb_pwr.o
                0x20002bb8                ResumeS
 *fill*         0x20002bba        0x2 00
 COMMON         0x20002bbc        0x2 D:\svn\stm32\stm32_high\sw\prj\RIDE\all_demo\usb_core.o
                0x20002bbc                StatusInfo
 *fill*         0x20002bbe        0x2 00
 COMMON         0x20002bc0       0x32 D:\svn\stm32\stm32_high\sw\prj\RIDE\all_demo\usb_init.o
                0x20002bc0                SaveState
                0x20002bc4                pProperty
                0x20002bc8                EPindex
                0x20002bcc                Device_Info
                0x20002be8                pUser_Standard_Requests
                0x20002bec                pInformation
                0x20002bf0                wInterrupt_Mask
 COMMON         0x20002bf2        0x4 D:\svn\stm32\stm32_high\sw\prj\RIDE\all_demo\usb_int.o
                0x20002bf2                SaveRState
                0x20002bf4                SaveTState
 *fill*         0x20002bf6        0x2 00
 COMMON         0x20002bf8        0x4 c:/program files/raisonance/ride/arm-gcc/bin/../lib/gcc/arm-none-eabi/4.5.2/../../../../arm-none-eabi/lib/thumb2\libc.a(lib_a-reent.o)
                0x20002bf8                errno
                0x20002bfc                . = ALIGN (0x4)
                0x20002bfc                _ebss = .
                0x20002bfc                PROVIDE (end, _ebss)
                0x20002bfc                PROVIDE (_end, _ebss)

._usrstack      0x20002bfc      0x100 load address 0x0802c810
                0x20002bfc                . = ALIGN (0x4)
                0x20002bfc                _susrstack = .
                0x20002cfc                . = (. + _Minimum_Stack_Size)
 *fill*         0x20002bfc      0x100 00
                0x20002cfc                . = ALIGN (0x4)
                0x20002cfc                _eusrstack = .

.b1text
 *(.b1text)
 *(.b1rodata)
 *(.b1rodata*)

.eb0text
 *(.eb0text)
 *(.eb0rodata)
 *(.eb0rodata*)

.eb1text
 *(.eb1text)
 *(.eb1rodata)
 *(.eb1rodata*)

.eb2text
 *(.eb2text)
 *(.eb2rodata)
 *(.eb2rodata*)

.eb3text
 *(.eb3text)
 *(.eb3rodata)
 *(.eb3rodata*)
                0x20002cfc                __exidx_start = .
                0x20002cfc                __exidx_end = .

/DISCARD/
 libc.a(*)
 libm.a(*)
 libgcc.a(*)

.stab
 *(.stab)

.stabstr
 *(.stabstr)

.stab.excl
 *(.stab.excl)

.stab.exclstr
 *(.stab.exclstr)

.stab.index
 *(.stab.index)

.stab.indexstr
 *(.stab.indexstr)

.ARM.attributes
                0x00000000       0x2f
 .ARM.attributes
                0x00000000       0x31 D:\svn\stm32\stm32_high\sw\prj\RIDE\all_demo\vs1003b.o
 .ARM.attributes
                0x00000031       0x31 D:\svn\stm32\stm32_high\sw\prj\RIDE\all_demo\adc.o
 .ARM.attributes
                0x00000062       0x31 D:\svn\stm32\stm32_high\sw\prj\RIDE\all_demo\at24c02.o
 .ARM.attributes
                0x00000093       0x31 D:\svn\stm32\stm32_high\sw\prj\RIDE\all_demo\buzzer.o
 .ARM.attributes
                0x000000c4       0x31 D:\svn\stm32\stm32_high\sw\prj\RIDE\all_demo\can.o
 .ARM.attributes
                0x000000f5       0x31 D:\svn\stm32\stm32_high\sw\prj\RIDE\all_demo\dac.o
 .ARM.attributes
                0x00000126       0x31 D:\svn\stm32\stm32_high\sw\prj\RIDE\all_demo\diskio.o
 .ARM.attributes
                0x00000157       0x31 D:\svn\stm32\stm32_high\sw\prj\RIDE\all_demo\ff.o
 .ARM.attributes
                0x00000188       0x31 D:\svn\stm32\stm32_high\sw\prj\RIDE\all_demo\font.o
 .ARM.attributes
                0x000001b9       0x31 D:\svn\stm32\stm32_high\sw\prj\RIDE\all_demo\hw_config.o
 .ARM.attributes
                0x000001ea       0x31 D:\svn\stm32\stm32_high\sw\prj\RIDE\all_demo\icon.o
 .ARM.attributes
                0x0000021b       0x31 D:\svn\stm32\stm32_high\sw\prj\RIDE\all_demo\iic.o
 .ARM.attributes
                0x0000024c       0x31 D:\svn\stm32\stm32_high\sw\prj\RIDE\all_demo\key.o
 .ARM.attributes
                0x0000027d       0x31 D:\svn\stm32\stm32_high\sw\prj\RIDE\all_demo\lcd28.o
 .ARM.attributes
                0x000002ae       0x31 D:\svn\stm32\stm32_high\sw\prj\RIDE\all_demo\lcd32.o
 .ARM.attributes
                0x000002df       0x31 D:\svn\stm32\stm32_high\sw\prj\RIDE\all_demo\lcd43.o
 .ARM.attributes
                0x00000310       0x31 D:\svn\stm32\stm32_high\sw\prj\RIDE\all_demo\lcd70.o
 .ARM.attributes
                0x00000341       0x31 D:\svn\stm32\stm32_high\sw\prj\RIDE\all_demo\lcd1602.o
 .ARM.attributes
                0x00000372       0x31 D:\svn\stm32\stm32_high\sw\prj\RIDE\all_demo\lcd12864.o
 .ARM.attributes
                0x000003a3       0x31 D:\svn\stm32\stm32_high\sw\prj\RIDE\all_demo\lcd.o
 .ARM.attributes
                0x000003d4       0x31 D:\svn\stm32\stm32_high\sw\prj\RIDE\all_demo\led.o
 .ARM.attributes
                0x00000405       0x31 D:\svn\stm32\stm32_high\sw\prj\RIDE\all_demo\main.o
 .ARM.attributes
                0x00000436       0x31 D:\svn\stm32\stm32_high\sw\prj\RIDE\all_demo\mmc_sd.o
 .ARM.attributes
                0x00000467       0x31 D:\svn\stm32\stm32_high\sw\prj\RIDE\all_demo\nrf24l01.o
 .ARM.attributes
                0x00000498       0x31 D:\svn\stm32\stm32_high\sw\prj\RIDE\all_demo\queue.o
 .ARM.attributes
                0x000004c9       0x31 D:\svn\stm32\stm32_high\sw\prj\RIDE\all_demo\rs485.o
 .ARM.attributes
                0x000004fa       0x31 D:\svn\stm32\stm32_high\sw\prj\RIDE\all_demo\rtc.o
 .ARM.attributes
                0x0000052b       0x31 D:\svn\stm32\stm32_high\sw\prj\RIDE\all_demo\spi.o
 .ARM.attributes
                0x0000055c       0x31 D:\svn\stm32\stm32_high\sw\prj\RIDE\all_demo\stm32f10x_it.o
 .ARM.attributes
                0x0000058d       0x31 D:\svn\stm32\stm32_high\sw\prj\RIDE\all_demo\timer.o
 .ARM.attributes
                0x000005be       0x31 D:\svn\stm32\stm32_high\sw\prj\RIDE\all_demo\touch.o
 .ARM.attributes
                0x000005ef       0x31 D:\svn\stm32\stm32_high\sw\prj\RIDE\all_demo\usart.o
 .ARM.attributes
                0x00000620       0x31 D:\svn\stm32\stm32_high\sw\prj\RIDE\all_demo\usb_desc.o
 .ARM.attributes
                0x00000651       0x31 D:\svn\stm32\stm32_high\sw\prj\RIDE\all_demo\usb_istr.o
 .ARM.attributes
                0x00000682       0x31 D:\svn\stm32\stm32_high\sw\prj\RIDE\all_demo\usb_prop.o
 .ARM.attributes
                0x000006b3       0x31 D:\svn\stm32\stm32_high\sw\prj\RIDE\all_demo\usb_pwr.o
 .ARM.attributes
                0x000006e4       0x21 D:\svn\stm32\stm32_high\sw\prj\RIDE\all_demo\startup_stm32f10x_hd.o
 .ARM.attributes
                0x00000705       0x31 D:\svn\stm32\stm32_high\sw\prj\RIDE\all_demo\system_stm32f10x.o
 .ARM.attributes
                0x00000736       0x31 D:\svn\stm32\stm32_high\sw\prj\RIDE\all_demo\usb_sil.o
 .ARM.attributes
                0x00000767       0x31 D:\svn\stm32\stm32_high\sw\prj\RIDE\all_demo\otgd_fs_cal.o
 .ARM.attributes
                0x00000798       0x31 D:\svn\stm32\stm32_high\sw\prj\RIDE\all_demo\otgd_fs_dev.o
 .ARM.attributes
                0x000007c9       0x31 D:\svn\stm32\stm32_high\sw\prj\RIDE\all_demo\otgd_fs_int.o
 .ARM.attributes
                0x000007fa       0x31 D:\svn\stm32\stm32_high\sw\prj\RIDE\all_demo\otgd_fs_pcd.o
 .ARM.attributes
                0x0000082b       0x31 D:\svn\stm32\stm32_high\sw\prj\RIDE\all_demo\usb_core.o
 .ARM.attributes
                0x0000085c       0x31 D:\svn\stm32\stm32_high\sw\prj\RIDE\all_demo\usb_init.o
 .ARM.attributes
                0x0000088d       0x31 D:\svn\stm32\stm32_high\sw\prj\RIDE\all_demo\usb_int.o
 .ARM.attributes
                0x000008be       0x31 D:\svn\stm32\stm32_high\sw\prj\RIDE\all_demo\usb_mem.o
 .ARM.attributes
                0x000008ef       0x31 D:\svn\stm32\stm32_high\sw\prj\RIDE\all_demo\usb_regs.o
 .ARM.attributes
                0x00000920       0x31 D:\svn\stm32\stm32_high\sw\prj\RIDE\all_demo\stm32f10x_wwdg.o
 .ARM.attributes
                0x00000951       0x31 D:\svn\stm32\stm32_high\sw\prj\RIDE\all_demo\misc.o
 .ARM.attributes
                0x00000982       0x31 D:\svn\stm32\stm32_high\sw\prj\RIDE\all_demo\stm32f10x_adc.o
 .ARM.attributes
                0x000009b3       0x31 D:\svn\stm32\stm32_high\sw\prj\RIDE\all_demo\stm32f10x_bkp.o
 .ARM.attributes
                0x000009e4       0x31 D:\svn\stm32\stm32_high\sw\prj\RIDE\all_demo\stm32f10x_can.o
 .ARM.attributes
                0x00000a15       0x31 D:\svn\stm32\stm32_high\sw\prj\RIDE\all_demo\stm32f10x_cec.o
 .ARM.attributes
                0x00000a46       0x31 D:\svn\stm32\stm32_high\sw\prj\RIDE\all_demo\stm32f10x_crc.o
 .ARM.attributes
                0x00000a77       0x31 D:\svn\stm32\stm32_high\sw\prj\RIDE\all_demo\stm32f10x_dac.o
 .ARM.attributes
                0x00000aa8       0x31 D:\svn\stm32\stm32_high\sw\prj\RIDE\all_demo\stm32f10x_dbgmcu.o
 .ARM.attributes
                0x00000ad9       0x31 D:\svn\stm32\stm32_high\sw\prj\RIDE\all_demo\stm32f10x_dma.o
 .ARM.attributes
                0x00000b0a       0x31 D:\svn\stm32\stm32_high\sw\prj\RIDE\all_demo\stm32f10x_exti.o
 .ARM.attributes
                0x00000b3b       0x31 D:\svn\stm32\stm32_high\sw\prj\RIDE\all_demo\stm32f10x_flash.o
 .ARM.attributes
                0x00000b6c       0x31 D:\svn\stm32\stm32_high\sw\prj\RIDE\all_demo\stm32f10x_fsmc.o
 .ARM.attributes
                0x00000b9d       0x31 D:\svn\stm32\stm32_high\sw\prj\RIDE\all_demo\stm32f10x_gpio.o
 .ARM.attributes
                0x00000bce       0x31 D:\svn\stm32\stm32_high\sw\prj\RIDE\all_demo\stm32f10x_i2c.o
 .ARM.attributes
                0x00000bff       0x31 D:\svn\stm32\stm32_high\sw\prj\RIDE\all_demo\stm32f10x_iwdg.o
 .ARM.attributes
                0x00000c30       0x31 D:\svn\stm32\stm32_high\sw\prj\RIDE\all_demo\stm32f10x_pwr.o
 .ARM.attributes
                0x00000c61       0x31 D:\svn\stm32\stm32_high\sw\prj\RIDE\all_demo\stm32f10x_rcc.o
 .ARM.attributes
                0x00000c92       0x31 D:\svn\stm32\stm32_high\sw\prj\RIDE\all_demo\stm32f10x_rtc.o
 .ARM.attributes
                0x00000cc3       0x31 D:\svn\stm32\stm32_high\sw\prj\RIDE\all_demo\stm32f10x_sdio.o
 .ARM.attributes
                0x00000cf4       0x31 D:\svn\stm32\stm32_high\sw\prj\RIDE\all_demo\stm32f10x_spi.o
 .ARM.attributes
                0x00000d25       0x31 D:\svn\stm32\stm32_high\sw\prj\RIDE\all_demo\stm32f10x_tim.o
 .ARM.attributes
                0x00000d56       0x31 D:\svn\stm32\stm32_high\sw\prj\RIDE\all_demo\stm32f10x_usart.o
 .ARM.attributes
                0x00000d87       0x2e C:\Program Files\Raisonance\Ride\Lib\ARM\std_sbrk_thumb.lib(sbrk.o)

.comment        0x00000000       0x54
 *(.comment)
 .comment       0x00000000       0x2a D:\svn\stm32\stm32_high\sw\prj\RIDE\all_demo\vs1003b.o
                                 0x2b (size before relaxing)
 .comment       0x00000000       0x2b D:\svn\stm32\stm32_high\sw\prj\RIDE\all_demo\adc.o
 .comment       0x00000000       0x2b D:\svn\stm32\stm32_high\sw\prj\RIDE\all_demo\at24c02.o
 .comment       0x00000000       0x2b D:\svn\stm32\stm32_high\sw\prj\RIDE\all_demo\buzzer.o
 .comment       0x00000000       0x2b D:\svn\stm32\stm32_high\sw\prj\RIDE\all_demo\can.o
 .comment       0x00000000       0x2b D:\svn\stm32\stm32_high\sw\prj\RIDE\all_demo\dac.o
 .comment       0x00000000       0x2b D:\svn\stm32\stm32_high\sw\prj\RIDE\all_demo\diskio.o
 .comment       0x00000000       0x2b D:\svn\stm32\stm32_high\sw\prj\RIDE\all_demo\ff.o
 .comment       0x00000000       0x2b D:\svn\stm32\stm32_high\sw\prj\RIDE\all_demo\font.o
 .comment       0x00000000       0x2b D:\svn\stm32\stm32_high\sw\prj\RIDE\all_demo\hw_config.o
 .comment       0x00000000       0x2b D:\svn\stm32\stm32_high\sw\prj\RIDE\all_demo\icon.o
 .comment       0x00000000       0x2b D:\svn\stm32\stm32_high\sw\prj\RIDE\all_demo\iic.o
 .comment       0x00000000       0x2b D:\svn\stm32\stm32_high\sw\prj\RIDE\all_demo\key.o
 .comment       0x00000000       0x2b D:\svn\stm32\stm32_high\sw\prj\RIDE\all_demo\lcd28.o
 .comment       0x00000000       0x2b D:\svn\stm32\stm32_high\sw\prj\RIDE\all_demo\lcd32.o
 .comment       0x00000000       0x2b D:\svn\stm32\stm32_high\sw\prj\RIDE\all_demo\lcd43.o
 .comment       0x00000000       0x2b D:\svn\stm32\stm32_high\sw\prj\RIDE\all_demo\lcd70.o
 .comment       0x00000000       0x2b D:\svn\stm32\stm32_high\sw\prj\RIDE\all_demo\lcd1602.o
 .comment       0x00000000       0x2b D:\svn\stm32\stm32_high\sw\prj\RIDE\all_demo\lcd12864.o
 .comment       0x00000000       0x2b D:\svn\stm32\stm32_high\sw\prj\RIDE\all_demo\lcd.o
 .comment       0x00000000       0x2b D:\svn\stm32\stm32_high\sw\prj\RIDE\all_demo\led.o
 .comment       0x00000000       0x2b D:\svn\stm32\stm32_high\sw\prj\RIDE\all_demo\main.o
 .comment       0x00000000       0x2b D:\svn\stm32\stm32_high\sw\prj\RIDE\all_demo\mmc_sd.o
 .comment       0x00000000       0x2b D:\svn\stm32\stm32_high\sw\prj\RIDE\all_demo\nrf24l01.o
 .comment       0x00000000       0x2b D:\svn\stm32\stm32_high\sw\prj\RIDE\all_demo\queue.o
 .comment       0x00000000       0x2b D:\svn\stm32\stm32_high\sw\prj\RIDE\all_demo\rs485.o
 .comment       0x00000000       0x2b D:\svn\stm32\stm32_high\sw\prj\RIDE\all_demo\rtc.o
 .comment       0x00000000       0x2b D:\svn\stm32\stm32_high\sw\prj\RIDE\all_demo\spi.o
 .comment       0x00000000       0x2b D:\svn\stm32\stm32_high\sw\prj\RIDE\all_demo\stm32f10x_it.o
 .comment       0x00000000       0x2b D:\svn\stm32\stm32_high\sw\prj\RIDE\all_demo\timer.o
 .comment       0x00000000       0x2b D:\svn\stm32\stm32_high\sw\prj\RIDE\all_demo\touch.o
 .comment       0x00000000       0x2b D:\svn\stm32\stm32_high\sw\prj\RIDE\all_demo\usart.o
 .comment       0x00000000       0x2b D:\svn\stm32\stm32_high\sw\prj\RIDE\all_demo\usb_desc.o
 .comment       0x00000000       0x2b D:\svn\stm32\stm32_high\sw\prj\RIDE\all_demo\usb_istr.o
 .comment       0x00000000       0x2b D:\svn\stm32\stm32_high\sw\prj\RIDE\all_demo\usb_prop.o
 .comment       0x00000000       0x2b D:\svn\stm32\stm32_high\sw\prj\RIDE\all_demo\usb_pwr.o
 .comment       0x00000000       0x2b D:\svn\stm32\stm32_high\sw\prj\RIDE\all_demo\system_stm32f10x.o
 .comment       0x00000000       0x2b D:\svn\stm32\stm32_high\sw\prj\RIDE\all_demo\usb_sil.o
 .comment       0x00000000       0x2b D:\svn\stm32\stm32_high\sw\prj\RIDE\all_demo\otgd_fs_cal.o
 .comment       0x00000000       0x2b D:\svn\stm32\stm32_high\sw\prj\RIDE\all_demo\otgd_fs_dev.o
 .comment       0x00000000       0x2b D:\svn\stm32\stm32_high\sw\prj\RIDE\all_demo\otgd_fs_int.o
 .comment       0x00000000       0x2b D:\svn\stm32\stm32_high\sw\prj\RIDE\all_demo\otgd_fs_pcd.o
 .comment       0x00000000       0x2b D:\svn\stm32\stm32_high\sw\prj\RIDE\all_demo\usb_core.o
 .comment       0x00000000       0x2b D:\svn\stm32\stm32_high\sw\prj\RIDE\all_demo\usb_init.o
 .comment       0x00000000       0x2b D:\svn\stm32\stm32_high\sw\prj\RIDE\all_demo\usb_int.o
 .comment       0x00000000       0x2b D:\svn\stm32\stm32_high\sw\prj\RIDE\all_demo\usb_mem.o
 .comment       0x00000000       0x2b D:\svn\stm32\stm32_high\sw\prj\RIDE\all_demo\usb_regs.o
 .comment       0x00000000       0x2b D:\svn\stm32\stm32_high\sw\prj\RIDE\all_demo\stm32f10x_wwdg.o
 .comment       0x00000000       0x2b D:\svn\stm32\stm32_high\sw\prj\RIDE\all_demo\misc.o
 .comment       0x00000000       0x2b D:\svn\stm32\stm32_high\sw\prj\RIDE\all_demo\stm32f10x_adc.o
 .comment       0x00000000       0x2b D:\svn\stm32\stm32_high\sw\prj\RIDE\all_demo\stm32f10x_bkp.o
 .comment       0x00000000       0x2b D:\svn\stm32\stm32_high\sw\prj\RIDE\all_demo\stm32f10x_can.o
 .comment       0x00000000       0x2b D:\svn\stm32\stm32_high\sw\prj\RIDE\all_demo\stm32f10x_cec.o
 .comment       0x00000000       0x2b D:\svn\stm32\stm32_high\sw\prj\RIDE\all_demo\stm32f10x_crc.o
 .comment       0x00000000       0x2b D:\svn\stm32\stm32_high\sw\prj\RIDE\all_demo\stm32f10x_dac.o
 .comment       0x00000000       0x2b D:\svn\stm32\stm32_high\sw\prj\RIDE\all_demo\stm32f10x_dbgmcu.o
 .comment       0x00000000       0x2b D:\svn\stm32\stm32_high\sw\prj\RIDE\all_demo\stm32f10x_dma.o
 .comment       0x00000000       0x2b D:\svn\stm32\stm32_high\sw\prj\RIDE\all_demo\stm32f10x_exti.o
 .comment       0x00000000       0x2b D:\svn\stm32\stm32_high\sw\prj\RIDE\all_demo\stm32f10x_flash.o
 .comment       0x00000000       0x2b D:\svn\stm32\stm32_high\sw\prj\RIDE\all_demo\stm32f10x_fsmc.o
 .comment       0x00000000       0x2b D:\svn\stm32\stm32_high\sw\prj\RIDE\all_demo\stm32f10x_gpio.o
 .comment       0x00000000       0x2b D:\svn\stm32\stm32_high\sw\prj\RIDE\all_demo\stm32f10x_i2c.o
 .comment       0x00000000       0x2b D:\svn\stm32\stm32_high\sw\prj\RIDE\all_demo\stm32f10x_iwdg.o
 .comment       0x00000000       0x2b D:\svn\stm32\stm32_high\sw\prj\RIDE\all_demo\stm32f10x_pwr.o
 .comment       0x00000000       0x2b D:\svn\stm32\stm32_high\sw\prj\RIDE\all_demo\stm32f10x_rcc.o
 .comment       0x00000000       0x2b D:\svn\stm32\stm32_high\sw\prj\RIDE\all_demo\stm32f10x_rtc.o
 .comment       0x00000000       0x2b D:\svn\stm32\stm32_high\sw\prj\RIDE\all_demo\stm32f10x_sdio.o
 .comment       0x00000000       0x2b D:\svn\stm32\stm32_high\sw\prj\RIDE\all_demo\stm32f10x_spi.o
 .comment       0x00000000       0x2b D:\svn\stm32\stm32_high\sw\prj\RIDE\all_demo\stm32f10x_tim.o
 .comment       0x00000000       0x2b D:\svn\stm32\stm32_high\sw\prj\RIDE\all_demo\stm32f10x_usart.o
 .comment       0x0000002a       0x2a C:\Program Files\Raisonance\Ride\Lib\ARM\std_sbrk_thumb.lib(sbrk.o)

.debug
 *(.debug)

.line
 *(.line)

.debug_srcinfo
 *(.debug_srcinfo)

.debug_sfnames
 *(.debug_sfnames)

.debug_aranges  0x00000000     0x2490
 *(.debug_aranges)
 .debug_aranges
                0x00000000       0xa0 D:\svn\stm32\stm32_high\sw\prj\RIDE\all_demo\vs1003b.o
 .debug_aranges
                0x000000a0       0x28 D:\svn\stm32\stm32_high\sw\prj\RIDE\all_demo\adc.o
 .debug_aranges
                0x000000c8       0x60 D:\svn\stm32\stm32_high\sw\prj\RIDE\all_demo\at24c02.o
 .debug_aranges
                0x00000128       0x38 D:\svn\stm32\stm32_high\sw\prj\RIDE\all_demo\buzzer.o
 .debug_aranges
                0x00000160       0x40 D:\svn\stm32\stm32_high\sw\prj\RIDE\all_demo\can.o
 .debug_aranges
                0x000001a0       0x28 D:\svn\stm32\stm32_high\sw\prj\RIDE\all_demo\dac.o
 .debug_aranges
                0x000001c8       0x48 D:\svn\stm32\stm32_high\sw\prj\RIDE\all_demo\diskio.o
 .debug_aranges
                0x00000210      0x140 D:\svn\stm32\stm32_high\sw\prj\RIDE\all_demo\ff.o
 .debug_aranges
                0x00000350       0x78 D:\svn\stm32\stm32_high\sw\prj\RIDE\all_demo\hw_config.o
 .debug_aranges
                0x000003c8       0x58 D:\svn\stm32\stm32_high\sw\prj\RIDE\all_demo\iic.o
 .debug_aranges
                0x00000420       0x50 D:\svn\stm32\stm32_high\sw\prj\RIDE\all_demo\key.o
 .debug_aranges
                0x00000470       0x80 D:\svn\stm32\stm32_high\sw\prj\RIDE\all_demo\lcd28.o
 .debug_aranges
                0x000004f0       0x80 D:\svn\stm32\stm32_high\sw\prj\RIDE\all_demo\lcd32.o
 .debug_aranges
                0x00000570       0xb0 D:\svn\stm32\stm32_high\sw\prj\RIDE\all_demo\lcd43.o
 .debug_aranges
                0x00000620       0xa0 D:\svn\stm32\stm32_high\sw\prj\RIDE\all_demo\lcd70.o
 .debug_aranges
                0x000006c0       0x78 D:\svn\stm32\stm32_high\sw\prj\RIDE\all_demo\lcd1602.o
 .debug_aranges
                0x00000738       0x80 D:\svn\stm32\stm32_high\sw\prj\RIDE\all_demo\lcd12864.o
 .debug_aranges
                0x000007b8       0x70 D:\svn\stm32\stm32_high\sw\prj\RIDE\all_demo\lcd.o
 .debug_aranges
                0x00000828       0x50 D:\svn\stm32\stm32_high\sw\prj\RIDE\all_demo\led.o
 .debug_aranges
                0x00000878      0x270 D:\svn\stm32\stm32_high\sw\prj\RIDE\all_demo\main.o
 .debug_aranges
                0x00000ae8       0xb0 D:\svn\stm32\stm32_high\sw\prj\RIDE\all_demo\mmc_sd.o
 .debug_aranges
                0x00000b98       0x68 D:\svn\stm32\stm32_high\sw\prj\RIDE\all_demo\nrf24l01.o
 .debug_aranges
                0x00000c00       0x58 D:\svn\stm32\stm32_high\sw\prj\RIDE\all_demo\queue.o
 .debug_aranges
                0x00000c58       0x40 D:\svn\stm32\stm32_high\sw\prj\RIDE\all_demo\rs485.o
 .debug_aranges
                0x00000c98       0x48 D:\svn\stm32\stm32_high\sw\prj\RIDE\all_demo\rtc.o
 .debug_aranges
                0x00000ce0       0x40 D:\svn\stm32\stm32_high\sw\prj\RIDE\all_demo\spi.o
 .debug_aranges
                0x00000d20       0x70 D:\svn\stm32\stm32_high\sw\prj\RIDE\all_demo\stm32f10x_it.o
 .debug_aranges
                0x00000d90       0x40 D:\svn\stm32\stm32_high\sw\prj\RIDE\all_demo\timer.o
 .debug_aranges
                0x00000dd0       0xe0 D:\svn\stm32\stm32_high\sw\prj\RIDE\all_demo\touch.o
 .debug_aranges
                0x00000eb0       0xc0 D:\svn\stm32\stm32_high\sw\prj\RIDE\all_demo\usart.o
 .debug_aranges
                0x00000f70       0x20 D:\svn\stm32\stm32_high\sw\prj\RIDE\all_demo\usb_istr.o
 .debug_aranges
                0x00000f90       0x98 D:\svn\stm32\stm32_high\sw\prj\RIDE\all_demo\usb_prop.o
 .debug_aranges
                0x00001028       0x40 D:\svn\stm32\stm32_high\sw\prj\RIDE\all_demo\usb_pwr.o
 .debug_aranges
                0x00001068       0x28 D:\svn\stm32\stm32_high\sw\prj\RIDE\all_demo\system_stm32f10x.o
 .debug_aranges
                0x00001090       0x30 D:\svn\stm32\stm32_high\sw\prj\RIDE\all_demo\usb_sil.o
 .debug_aranges
                0x000010c0       0x98 D:\svn\stm32\stm32_high\sw\prj\RIDE\all_demo\usb_core.o
 .debug_aranges
                0x00001158       0x20 D:\svn\stm32\stm32_high\sw\prj\RIDE\all_demo\usb_init.o
 .debug_aranges
                0x00001178       0x28 D:\svn\stm32\stm32_high\sw\prj\RIDE\all_demo\usb_int.o
 .debug_aranges
                0x000011a0       0x28 D:\svn\stm32\stm32_high\sw\prj\RIDE\all_demo\usb_mem.o
 .debug_aranges
                0x000011c8      0x1f0 D:\svn\stm32\stm32_high\sw\prj\RIDE\all_demo\usb_regs.o
 .debug_aranges
                0x000013b8       0x58 D:\svn\stm32\stm32_high\sw\prj\RIDE\all_demo\stm32f10x_wwdg.o
 .debug_aranges
                0x00001410       0x40 D:\svn\stm32\stm32_high\sw\prj\RIDE\all_demo\misc.o
 .debug_aranges
                0x00001450      0x138 D:\svn\stm32\stm32_high\sw\prj\RIDE\all_demo\stm32f10x_adc.o
 .debug_aranges
                0x00001588       0x78 D:\svn\stm32\stm32_high\sw\prj\RIDE\all_demo\stm32f10x_bkp.o
 .debug_aranges
                0x00001600       0xe0 D:\svn\stm32\stm32_high\sw\prj\RIDE\all_demo\stm32f10x_can.o
 .debug_aranges
                0x000016e0       0x88 D:\svn\stm32\stm32_high\sw\prj\RIDE\all_demo\stm32f10x_cec.o
 .debug_aranges
                0x00001768       0x48 D:\svn\stm32\stm32_high\sw\prj\RIDE\all_demo\stm32f10x_crc.o
 .debug_aranges
                0x000017b0       0x78 D:\svn\stm32\stm32_high\sw\prj\RIDE\all_demo\stm32f10x_dac.o
 .debug_aranges
                0x00001828       0x30 D:\svn\stm32\stm32_high\sw\prj\RIDE\all_demo\stm32f10x_dbgmcu.o
 .debug_aranges
                0x00001858       0x70 D:\svn\stm32\stm32_high\sw\prj\RIDE\all_demo\stm32f10x_dma.o
 .debug_aranges
                0x000018c8       0x58 D:\svn\stm32\stm32_high\sw\prj\RIDE\all_demo\stm32f10x_exti.o
 .debug_aranges
                0x00001920       0xf8 D:\svn\stm32\stm32_high\sw\prj\RIDE\all_demo\stm32f10x_flash.o
 .debug_aranges
                0x00001a18       0xb0 D:\svn\stm32\stm32_high\sw\prj\RIDE\all_demo\stm32f10x_fsmc.o
 .debug_aranges
                0x00001ac8       0xa8 D:\svn\stm32\stm32_high\sw\prj\RIDE\all_demo\stm32f10x_gpio.o
 .debug_aranges
                0x00001b70      0x120 D:\svn\stm32\stm32_high\sw\prj\RIDE\all_demo\stm32f10x_i2c.o
 .debug_aranges
                0x00001c90       0x48 D:\svn\stm32\stm32_high\sw\prj\RIDE\all_demo\stm32f10x_iwdg.o
 .debug_aranges
                0x00001cd8       0x60 D:\svn\stm32\stm32_high\sw\prj\RIDE\all_demo\stm32f10x_pwr.o
 .debug_aranges
                0x00001d38      0x118 D:\svn\stm32\stm32_high\sw\prj\RIDE\all_demo\stm32f10x_rcc.o
 .debug_aranges
                0x00001e50       0x88 D:\svn\stm32\stm32_high\sw\prj\RIDE\all_demo\stm32f10x_rtc.o
 .debug_aranges
                0x00001ed8      0x108 D:\svn\stm32\stm32_high\sw\prj\RIDE\all_demo\stm32f10x_sdio.o
 .debug_aranges
                0x00001fe0       0xd0 D:\svn\stm32\stm32_high\sw\prj\RIDE\all_demo\stm32f10x_spi.o
 .debug_aranges
                0x000020b0      0x2e0 D:\svn\stm32\stm32_high\sw\prj\RIDE\all_demo\stm32f10x_tim.o
 .debug_aranges
                0x00002390      0x100 D:\svn\stm32\stm32_high\sw\prj\RIDE\all_demo\stm32f10x_usart.o

.debug_pubnames
                0x00000000     0x5c52
 *(.debug_pubnames)
 .debug_pubnames
                0x00000000      0x171 D:\svn\stm32\stm32_high\sw\prj\RIDE\all_demo\vs1003b.o
 .debug_pubnames
                0x00000171       0x39 D:\svn\stm32\stm32_high\sw\prj\RIDE\all_demo\adc.o
 .debug_pubnames
                0x000001aa       0xda D:\svn\stm32\stm32_high\sw\prj\RIDE\all_demo\at24c02.o
 .debug_pubnames
                0x00000284       0x5c D:\svn\stm32\stm32_high\sw\prj\RIDE\all_demo\buzzer.o
 .debug_pubnames
                0x000002e0       0x81 D:\svn\stm32\stm32_high\sw\prj\RIDE\all_demo\can.o
 .debug_pubnames
                0x00000361       0x4b D:\svn\stm32\stm32_high\sw\prj\RIDE\all_demo\dac.o
 .debug_pubnames
                0x000003ac       0x72 D:\svn\stm32\stm32_high\sw\prj\RIDE\all_demo\diskio.o
 .debug_pubnames
                0x0000041e       0xe5 D:\svn\stm32\stm32_high\sw\prj\RIDE\all_demo\ff.o
 .debug_pubnames
                0x00000503       0x3c D:\svn\stm32\stm32_high\sw\prj\RIDE\all_demo\font.o
 .debug_pubnames
                0x0000053f       0xee D:\svn\stm32\stm32_high\sw\prj\RIDE\all_demo\hw_config.o
 .debug_pubnames
                0x0000062d       0x20 D:\svn\stm32\stm32_high\sw\prj\RIDE\all_demo\icon.o
 .debug_pubnames
                0x0000064d       0x93 D:\svn\stm32\stm32_high\sw\prj\RIDE\all_demo\iic.o
 .debug_pubnames
                0x000006e0       0xe4 D:\svn\stm32\stm32_high\sw\prj\RIDE\all_demo\key.o
 .debug_pubnames
                0x000007c4      0x12e D:\svn\stm32\stm32_high\sw\prj\RIDE\all_demo\lcd28.o
 .debug_pubnames
                0x000008f2      0x12e D:\svn\stm32\stm32_high\sw\prj\RIDE\all_demo\lcd32.o
 .debug_pubnames
                0x00000a20      0x206 D:\svn\stm32\stm32_high\sw\prj\RIDE\all_demo\lcd43.o
 .debug_pubnames
                0x00000c26      0x209 D:\svn\stm32\stm32_high\sw\prj\RIDE\all_demo\lcd70.o
 .debug_pubnames
                0x00000e2f      0x109 D:\svn\stm32\stm32_high\sw\prj\RIDE\all_demo\lcd1602.o
 .debug_pubnames
                0x00000f38       0xf3 D:\svn\stm32\stm32_high\sw\prj\RIDE\all_demo\lcd12864.o
 .debug_pubnames
                0x0000102b       0xfb D:\svn\stm32\stm32_high\sw\prj\RIDE\all_demo\lcd.o
 .debug_pubnames
                0x00001126       0xd8 D:\svn\stm32\stm32_high\sw\prj\RIDE\all_demo\led.o
 .debug_pubnames
                0x000011fe      0x6f7 D:\svn\stm32\stm32_high\sw\prj\RIDE\all_demo\main.o
 .debug_pubnames
                0x000018f5      0x190 D:\svn\stm32\stm32_high\sw\prj\RIDE\all_demo\mmc_sd.o
 .debug_pubnames
                0x00001a85      0x109 D:\svn\stm32\stm32_high\sw\prj\RIDE\all_demo\nrf24l01.o
 .debug_pubnames
                0x00001b8e       0x97 D:\svn\stm32\stm32_high\sw\prj\RIDE\all_demo\queue.o
 .debug_pubnames
                0x00001c25       0x6e D:\svn\stm32\stm32_high\sw\prj\RIDE\all_demo\rs485.o
 .debug_pubnames
                0x00001c93       0x9f D:\svn\stm32\stm32_high\sw\prj\RIDE\all_demo\rtc.o
 .debug_pubnames
                0x00001d32       0x91 D:\svn\stm32\stm32_high\sw\prj\RIDE\all_demo\spi.o
 .debug_pubnames
                0x00001dc3      0x191 D:\svn\stm32\stm32_high\sw\prj\RIDE\all_demo\stm32f10x_it.o
 .debug_pubnames
                0x00001f54       0x9d D:\svn\stm32\stm32_high\sw\prj\RIDE\all_demo\timer.o
 .debug_pubnames
                0x00001ff1      0x2ac D:\svn\stm32\stm32_high\sw\prj\RIDE\all_demo\touch.o
 .debug_pubnames
                0x0000229d      0x38f D:\svn\stm32\stm32_high\sw\prj\RIDE\all_demo\usart.o
 .debug_pubnames
                0x0000262c       0xd5 D:\svn\stm32\stm32_high\sw\prj\RIDE\all_demo\usb_desc.o
 .debug_pubnames
                0x00002701       0x56 D:\svn\stm32\stm32_high\sw\prj\RIDE\all_demo\usb_istr.o
 .debug_pubnames
                0x00002757      0x29c D:\svn\stm32\stm32_high\sw\prj\RIDE\all_demo\usb_prop.o
 .debug_pubnames
                0x000029f3       0x83 D:\svn\stm32\stm32_high\sw\prj\RIDE\all_demo\usb_pwr.o
 .debug_pubnames
                0x00002a76       0x61 D:\svn\stm32\stm32_high\sw\prj\RIDE\all_demo\system_stm32f10x.o
 .debug_pubnames
                0x00002ad7       0x46 D:\svn\stm32\stm32_high\sw\prj\RIDE\all_demo\usb_sil.o
 .debug_pubnames
                0x00002b1d      0x1a5 D:\svn\stm32\stm32_high\sw\prj\RIDE\all_demo\usb_core.o
 .debug_pubnames
                0x00002cc2       0x98 D:\svn\stm32\stm32_high\sw\prj\RIDE\all_demo\usb_init.o
 .debug_pubnames
                0x00002d5a       0x46 D:\svn\stm32\stm32_high\sw\prj\RIDE\all_demo\usb_int.o
 .debug_pubnames
                0x00002da0       0x42 D:\svn\stm32\stm32_high\sw\prj\RIDE\all_demo\usb_mem.o
 .debug_pubnames
                0x00002de2      0x419 D:\svn\stm32\stm32_high\sw\prj\RIDE\all_demo\usb_regs.o
 .debug_pubnames
                0x000031fb       0xb0 D:\svn\stm32\stm32_high\sw\prj\RIDE\all_demo\stm32f10x_wwdg.o
 .debug_pubnames
                0x000032ab       0x89 D:\svn\stm32\stm32_high\sw\prj\RIDE\all_demo\misc.o
 .debug_pubnames
                0x00003334      0x401 D:\svn\stm32\stm32_high\sw\prj\RIDE\all_demo\stm32f10x_adc.o
 .debug_pubnames
                0x00003735      0x128 D:\svn\stm32\stm32_high\sw\prj\RIDE\all_demo\stm32f10x_bkp.o
 .debug_pubnames
                0x0000385d      0x208 D:\svn\stm32\stm32_high\sw\prj\RIDE\all_demo\stm32f10x_can.o
 .debug_pubnames
                0x00003a65      0x12b D:\svn\stm32\stm32_high\sw\prj\RIDE\all_demo\stm32f10x_cec.o
 .debug_pubnames
                0x00003b90       0x82 D:\svn\stm32\stm32_high\sw\prj\RIDE\all_demo\stm32f10x_crc.o
 .debug_pubnames
                0x00003c12      0x116 D:\svn\stm32\stm32_high\sw\prj\RIDE\all_demo\stm32f10x_dac.o
 .debug_pubnames
                0x00003d28       0x4c D:\svn\stm32\stm32_high\sw\prj\RIDE\all_demo\stm32f10x_dbgmcu.o
 .debug_pubnames
                0x00003d74       0xea D:\svn\stm32\stm32_high\sw\prj\RIDE\all_demo\stm32f10x_dma.o
 .debug_pubnames
                0x00003e5e       0xbb D:\svn\stm32\stm32_high\sw\prj\RIDE\all_demo\stm32f10x_exti.o
 .debug_pubnames
                0x00003f19      0x2f2 D:\svn\stm32\stm32_high\sw\prj\RIDE\all_demo\stm32f10x_flash.o
 .debug_pubnames
                0x0000420b      0x1a3 D:\svn\stm32\stm32_high\sw\prj\RIDE\all_demo\stm32f10x_fsmc.o
 .debug_pubnames
                0x000043ae      0x19d D:\svn\stm32\stm32_high\sw\prj\RIDE\all_demo\stm32f10x_gpio.o
 .debug_pubnames
                0x0000454b      0x2cb D:\svn\stm32\stm32_high\sw\prj\RIDE\all_demo\stm32f10x_i2c.o
 .debug_pubnames
                0x00004816       0x91 D:\svn\stm32\stm32_high\sw\prj\RIDE\all_demo\stm32f10x_iwdg.o
 .debug_pubnames
                0x000048a7       0xcb D:\svn\stm32\stm32_high\sw\prj\RIDE\all_demo\stm32f10x_pwr.o
 .debug_pubnames
                0x00004972      0x2c4 D:\svn\stm32\stm32_high\sw\prj\RIDE\all_demo\stm32f10x_rcc.o
 .debug_pubnames
                0x00004c36      0x136 D:\svn\stm32\stm32_high\sw\prj\RIDE\all_demo\stm32f10x_rtc.o
 .debug_pubnames
                0x00004d6c      0x2ac D:\svn\stm32\stm32_high\sw\prj\RIDE\all_demo\stm32f10x_sdio.o
 .debug_pubnames
                0x00005018      0x1f6 D:\svn\stm32\stm32_high\sw\prj\RIDE\all_demo\stm32f10x_spi.o
 .debug_pubnames
                0x0000520e      0x7b0 D:\svn\stm32\stm32_high\sw\prj\RIDE\all_demo\stm32f10x_tim.o
 .debug_pubnames
                0x000059be      0x294 D:\svn\stm32\stm32_high\sw\prj\RIDE\all_demo\stm32f10x_usart.o

.debug_info     0x00000000    0x1e403
 *(.debug_info .gnu.linkonce.wi.*)
 .debug_info    0x00000000      0x5fe D:\svn\stm32\stm32_high\sw\prj\RIDE\all_demo\vs1003b.o
 .debug_info    0x000005fe      0x422 D:\svn\stm32\stm32_high\sw\prj\RIDE\all_demo\adc.o
 .debug_info    0x00000a20      0x424 D:\svn\stm32\stm32_high\sw\prj\RIDE\all_demo\at24c02.o
 .debug_info    0x00000e44      0x246 D:\svn\stm32\stm32_high\sw\prj\RIDE\all_demo\buzzer.o
 .debug_info    0x0000108a      0xa56 D:\svn\stm32\stm32_high\sw\prj\RIDE\all_demo\can.o
 .debug_info    0x00001ae0      0x657 D:\svn\stm32\stm32_high\sw\prj\RIDE\all_demo\dac.o
 .debug_info    0x00002137      0x370 D:\svn\stm32\stm32_high\sw\prj\RIDE\all_demo\diskio.o
 .debug_info    0x000024a7     0x182d D:\svn\stm32\stm32_high\sw\prj\RIDE\all_demo\ff.o
 .debug_info    0x00003cd4       0xb7 D:\svn\stm32\stm32_high\sw\prj\RIDE\all_demo\font.o
 .debug_info    0x00003d8b      0xdf1 D:\svn\stm32\stm32_high\sw\prj\RIDE\all_demo\hw_config.o
 .debug_info    0x00004b7c       0x58 D:\svn\stm32\stm32_high\sw\prj\RIDE\all_demo\icon.o
 .debug_info    0x00004bd4      0x2af D:\svn\stm32\stm32_high\sw\prj\RIDE\all_demo\iic.o
 .debug_info    0x00004e83      0x85c D:\svn\stm32\stm32_high\sw\prj\RIDE\all_demo\key.o
 .debug_info    0x000056df      0x6e8 D:\svn\stm32\stm32_high\sw\prj\RIDE\all_demo\lcd28.o
 .debug_info    0x00005dc7      0x6e8 D:\svn\stm32\stm32_high\sw\prj\RIDE\all_demo\lcd32.o
 .debug_info    0x000064af      0xc0f D:\svn\stm32\stm32_high\sw\prj\RIDE\all_demo\lcd43.o
 .debug_info    0x000070be      0xa85 D:\svn\stm32\stm32_high\sw\prj\RIDE\all_demo\lcd70.o
 .debug_info    0x00007b43      0x430 D:\svn\stm32\stm32_high\sw\prj\RIDE\all_demo\lcd1602.o
 .debug_info    0x00007f73      0x515 D:\svn\stm32\stm32_high\sw\prj\RIDE\all_demo\lcd12864.o
 .debug_info    0x00008488      0x5fa D:\svn\stm32\stm32_high\sw\prj\RIDE\all_demo\lcd.o
 .debug_info    0x00008a82      0x462 D:\svn\stm32\stm32_high\sw\prj\RIDE\all_demo\led.o
 .debug_info    0x00008ee4     0x1cb6 D:\svn\stm32\stm32_high\sw\prj\RIDE\all_demo\main.o
 .debug_info    0x0000ab9a      0xb03 D:\svn\stm32\stm32_high\sw\prj\RIDE\all_demo\mmc_sd.o
 .debug_info    0x0000b69d      0x699 D:\svn\stm32\stm32_high\sw\prj\RIDE\all_demo\nrf24l01.o
 .debug_info    0x0000bd36      0x300 D:\svn\stm32\stm32_high\sw\prj\RIDE\all_demo\queue.o
 .debug_info    0x0000c036      0x27c D:\svn\stm32\stm32_high\sw\prj\RIDE\all_demo\rs485.o
 .debug_info    0x0000c2b2      0x4cb D:\svn\stm32\stm32_high\sw\prj\RIDE\all_demo\rtc.o
 .debug_info    0x0000c77d      0x399 D:\svn\stm32\stm32_high\sw\prj\RIDE\all_demo\spi.o
 .debug_info    0x0000cb16      0x749 D:\svn\stm32\stm32_high\sw\prj\RIDE\all_demo\stm32f10x_it.o
 .debug_info    0x0000d25f      0x6ff D:\svn\stm32\stm32_high\sw\prj\RIDE\all_demo\timer.o
 .debug_info    0x0000d95e      0xeca D:\svn\stm32\stm32_high\sw\prj\RIDE\all_demo\touch.o
 .debug_info    0x0000e828      0xeff D:\svn\stm32\stm32_high\sw\prj\RIDE\all_demo\usart.o
 .debug_info    0x0000f727      0x1af D:\svn\stm32\stm32_high\sw\prj\RIDE\all_demo\usb_desc.o
 .debug_info    0x0000f8d6      0x33b D:\svn\stm32\stm32_high\sw\prj\RIDE\all_demo\usb_istr.o
 .debug_info    0x0000fc11      0xa87 D:\svn\stm32\stm32_high\sw\prj\RIDE\all_demo\usb_prop.o
 .debug_info    0x00010698      0x30b D:\svn\stm32\stm32_high\sw\prj\RIDE\all_demo\usb_pwr.o
 .debug_info    0x000109a3      0x50a D:\svn\stm32\stm32_high\sw\prj\RIDE\all_demo\system_stm32f10x.o
 .debug_info    0x00010ead      0x18b D:\svn\stm32\stm32_high\sw\prj\RIDE\all_demo\usb_sil.o
 .debug_info    0x00011038        0x0 D:\svn\stm32\stm32_high\sw\prj\RIDE\all_demo\otgd_fs_cal.o
 .debug_info    0x00011038        0x0 D:\svn\stm32\stm32_high\sw\prj\RIDE\all_demo\otgd_fs_dev.o
 .debug_info    0x00011038        0x0 D:\svn\stm32\stm32_high\sw\prj\RIDE\all_demo\otgd_fs_int.o
 .debug_info    0x00011038        0x0 D:\svn\stm32\stm32_high\sw\prj\RIDE\all_demo\otgd_fs_pcd.o
 .debug_info    0x00011038      0xd22 D:\svn\stm32\stm32_high\sw\prj\RIDE\all_demo\usb_core.o
 .debug_info    0x00011d5a      0x4ed D:\svn\stm32\stm32_high\sw\prj\RIDE\all_demo\usb_init.o
 .debug_info    0x00012247      0x244 D:\svn\stm32\stm32_high\sw\prj\RIDE\all_demo\usb_int.o
 .debug_info    0x0001248b      0x1c8 D:\svn\stm32\stm32_high\sw\prj\RIDE\all_demo\usb_mem.o
 .debug_info    0x00012653      0xd3c D:\svn\stm32\stm32_high\sw\prj\RIDE\all_demo\usb_regs.o
 .debug_info    0x0001338f      0x242 D:\svn\stm32\stm32_high\sw\prj\RIDE\all_demo\stm32f10x_wwdg.o
 .debug_info    0x000135d1      0x598 D:\svn\stm32\stm32_high\sw\prj\RIDE\all_demo\misc.o
 .debug_info    0x00013b69      0xbf8 D:\svn\stm32\stm32_high\sw\prj\RIDE\all_demo\stm32f10x_adc.o
 .debug_info    0x00014761      0x87d D:\svn\stm32\stm32_high\sw\prj\RIDE\all_demo\stm32f10x_bkp.o
 .debug_info    0x00014fde      0xc5b D:\svn\stm32\stm32_high\sw\prj\RIDE\all_demo\stm32f10x_can.o
 .debug_info    0x00015c39      0x445 D:\svn\stm32\stm32_high\sw\prj\RIDE\all_demo\stm32f10x_cec.o
 .debug_info    0x0001607e      0x20d D:\svn\stm32\stm32_high\sw\prj\RIDE\all_demo\stm32f10x_crc.o
 .debug_info    0x0001628b      0x4ea D:\svn\stm32\stm32_high\sw\prj\RIDE\all_demo\stm32f10x_dac.o
 .debug_info    0x00016775      0x166 D:\svn\stm32\stm32_high\sw\prj\RIDE\all_demo\stm32f10x_dbgmcu.o
 .debug_info    0x000168db      0x4a4 D:\svn\stm32\stm32_high\sw\prj\RIDE\all_demo\stm32f10x_dma.o
 .debug_info    0x00016d7f      0x36a D:\svn\stm32\stm32_high\sw\prj\RIDE\all_demo\stm32f10x_exti.o
 .debug_info    0x000170e9      0x82f D:\svn\stm32\stm32_high\sw\prj\RIDE\all_demo\stm32f10x_flash.o
 .debug_info    0x00017918      0x9a4 D:\svn\stm32\stm32_high\sw\prj\RIDE\all_demo\stm32f10x_fsmc.o
 .debug_info    0x000182bc      0x726 D:\svn\stm32\stm32_high\sw\prj\RIDE\all_demo\stm32f10x_gpio.o
 .debug_info    0x000189e2      0xb7d D:\svn\stm32\stm32_high\sw\prj\RIDE\all_demo\stm32f10x_i2c.o
 .debug_info    0x0001955f      0x208 D:\svn\stm32\stm32_high\sw\prj\RIDE\all_demo\stm32f10x_iwdg.o
 .debug_info    0x00019767      0x4b1 D:\svn\stm32\stm32_high\sw\prj\RIDE\all_demo\stm32f10x_pwr.o
 .debug_info    0x00019c18      0x8f1 D:\svn\stm32\stm32_high\sw\prj\RIDE\all_demo\stm32f10x_rcc.o
 .debug_info    0x0001a509      0x496 D:\svn\stm32\stm32_high\sw\prj\RIDE\all_demo\stm32f10x_rtc.o
 .debug_info    0x0001a99f      0x87f D:\svn\stm32\stm32_high\sw\prj\RIDE\all_demo\stm32f10x_sdio.o
 .debug_info    0x0001b21e      0x967 D:\svn\stm32\stm32_high\sw\prj\RIDE\all_demo\stm32f10x_spi.o
 .debug_info    0x0001bb85     0x1e25 D:\svn\stm32\stm32_high\sw\prj\RIDE\all_demo\stm32f10x_tim.o
 .debug_info    0x0001d9aa      0xa59 D:\svn\stm32\stm32_high\sw\prj\RIDE\all_demo\stm32f10x_usart.o

.debug_abbrev   0x00000000     0x6788
 *(.debug_abbrev)
 .debug_abbrev  0x00000000      0x202 D:\svn\stm32\stm32_high\sw\prj\RIDE\all_demo\vs1003b.o
 .debug_abbrev  0x00000202       0xfd D:\svn\stm32\stm32_high\sw\prj\RIDE\all_demo\adc.o
 .debug_abbrev  0x000002ff      0x178 D:\svn\stm32\stm32_high\sw\prj\RIDE\all_demo\at24c02.o
 .debug_abbrev  0x00000477       0xf6 D:\svn\stm32\stm32_high\sw\prj\RIDE\all_demo\buzzer.o
 .debug_abbrev  0x0000056d      0x184 D:\svn\stm32\stm32_high\sw\prj\RIDE\all_demo\can.o
 .debug_abbrev  0x000006f1      0x136 D:\svn\stm32\stm32_high\sw\prj\RIDE\all_demo\dac.o
 .debug_abbrev  0x00000827      0x148 D:\svn\stm32\stm32_high\sw\prj\RIDE\all_demo\diskio.o
 .debug_abbrev  0x0000096f      0x32c D:\svn\stm32\stm32_high\sw\prj\RIDE\all_demo\ff.o
 .debug_abbrev  0x00000c9b       0x47 D:\svn\stm32\stm32_high\sw\prj\RIDE\all_demo\font.o
 .debug_abbrev  0x00000ce2      0x2bd D:\svn\stm32\stm32_high\sw\prj\RIDE\all_demo\hw_config.o
 .debug_abbrev  0x00000f9f       0x47 D:\svn\stm32\stm32_high\sw\prj\RIDE\all_demo\icon.o
 .debug_abbrev  0x00000fe6      0x135 D:\svn\stm32\stm32_high\sw\prj\RIDE\all_demo\iic.o
 .debug_abbrev  0x0000111b      0x227 D:\svn\stm32\stm32_high\sw\prj\RIDE\all_demo\key.o
 .debug_abbrev  0x00001342      0x164 D:\svn\stm32\stm32_high\sw\prj\RIDE\all_demo\lcd28.o
 .debug_abbrev  0x000014a6      0x164 D:\svn\stm32\stm32_high\sw\prj\RIDE\all_demo\lcd32.o
 .debug_abbrev  0x0000160a      0x1da D:\svn\stm32\stm32_high\sw\prj\RIDE\all_demo\lcd43.o
 .debug_abbrev  0x000017e4      0x194 D:\svn\stm32\stm32_high\sw\prj\RIDE\all_demo\lcd70.o
 .debug_abbrev  0x00001978      0x18e D:\svn\stm32\stm32_high\sw\prj\RIDE\all_demo\lcd1602.o
 .debug_abbrev  0x00001b06      0x18a D:\svn\stm32\stm32_high\sw\prj\RIDE\all_demo\lcd12864.o
 .debug_abbrev  0x00001c90      0x1cd D:\svn\stm32\stm32_high\sw\prj\RIDE\all_demo\lcd.o
 .debug_abbrev  0x00001e5d      0x15f D:\svn\stm32\stm32_high\sw\prj\RIDE\all_demo\led.o
 .debug_abbrev  0x00001fbc      0x2db D:\svn\stm32\stm32_high\sw\prj\RIDE\all_demo\main.o
 .debug_abbrev  0x00002297      0x21b D:\svn\stm32\stm32_high\sw\prj\RIDE\all_demo\mmc_sd.o
 .debug_abbrev  0x000024b2      0x1c5 D:\svn\stm32\stm32_high\sw\prj\RIDE\all_demo\nrf24l01.o
 .debug_abbrev  0x00002677      0x137 D:\svn\stm32\stm32_high\sw\prj\RIDE\all_demo\queue.o
 .debug_abbrev  0x000027ae      0x10e D:\svn\stm32\stm32_high\sw\prj\RIDE\all_demo\rs485.o
 .debug_abbrev  0x000028bc      0x1a5 D:\svn\stm32\stm32_high\sw\prj\RIDE\all_demo\rtc.o
 .debug_abbrev  0x00002a61      0x154 D:\svn\stm32\stm32_high\sw\prj\RIDE\all_demo\spi.o
 .debug_abbrev  0x00002bb5      0x160 D:\svn\stm32\stm32_high\sw\prj\RIDE\all_demo\stm32f10x_it.o
 .debug_abbrev  0x00002d15      0x1cd D:\svn\stm32\stm32_high\sw\prj\RIDE\all_demo\timer.o
 .debug_abbrev  0x00002ee2      0x2b0 D:\svn\stm32\stm32_high\sw\prj\RIDE\all_demo\touch.o
 .debug_abbrev  0x00003192      0x2c2 D:\svn\stm32\stm32_high\sw\prj\RIDE\all_demo\usart.o
 .debug_abbrev  0x00003454       0x79 D:\svn\stm32\stm32_high\sw\prj\RIDE\all_demo\usb_desc.o
 .debug_abbrev  0x000034cd      0x106 D:\svn\stm32\stm32_high\sw\prj\RIDE\all_demo\usb_istr.o
 .debug_abbrev  0x000035d3      0x214 D:\svn\stm32\stm32_high\sw\prj\RIDE\all_demo\usb_prop.o
 .debug_abbrev  0x000037e7      0x142 D:\svn\stm32\stm32_high\sw\prj\RIDE\all_demo\usb_pwr.o
 .debug_abbrev  0x00003929      0x17d D:\svn\stm32\stm32_high\sw\prj\RIDE\all_demo\system_stm32f10x.o
 .debug_abbrev  0x00003aa6       0xb9 D:\svn\stm32\stm32_high\sw\prj\RIDE\all_demo\usb_sil.o
 .debug_abbrev  0x00003b5f        0x1 D:\svn\stm32\stm32_high\sw\prj\RIDE\all_demo\otgd_fs_cal.o
 .debug_abbrev  0x00003b60        0x1 D:\svn\stm32\stm32_high\sw\prj\RIDE\all_demo\otgd_fs_dev.o
 .debug_abbrev  0x00003b61        0x1 D:\svn\stm32\stm32_high\sw\prj\RIDE\all_demo\otgd_fs_int.o
 .debug_abbrev  0x00003b62        0x1 D:\svn\stm32\stm32_high\sw\prj\RIDE\all_demo\otgd_fs_pcd.o
 .debug_abbrev  0x00003b63      0x30e D:\svn\stm32\stm32_high\sw\prj\RIDE\all_demo\usb_core.o
 .debug_abbrev  0x00003e71      0x11f D:\svn\stm32\stm32_high\sw\prj\RIDE\all_demo\usb_init.o
 .debug_abbrev  0x00003f90       0xcf D:\svn\stm32\stm32_high\sw\prj\RIDE\all_demo\usb_int.o
 .debug_abbrev  0x0000405f       0xc2 D:\svn\stm32\stm32_high\sw\prj\RIDE\all_demo\usb_mem.o
 .debug_abbrev  0x00004121      0x1c4 D:\svn\stm32\stm32_high\sw\prj\RIDE\all_demo\usb_regs.o
 .debug_abbrev  0x000042e5      0x135 D:\svn\stm32\stm32_high\sw\prj\RIDE\all_demo\stm32f10x_wwdg.o
 .debug_abbrev  0x0000441a      0x14e D:\svn\stm32\stm32_high\sw\prj\RIDE\all_demo\misc.o
 .debug_abbrev  0x00004568      0x1d1 D:\svn\stm32\stm32_high\sw\prj\RIDE\all_demo\stm32f10x_adc.o
 .debug_abbrev  0x00004739      0x17e D:\svn\stm32\stm32_high\sw\prj\RIDE\all_demo\stm32f10x_bkp.o
 .debug_abbrev  0x000048b7      0x1fc D:\svn\stm32\stm32_high\sw\prj\RIDE\all_demo\stm32f10x_can.o
 .debug_abbrev  0x00004ab3      0x1c6 D:\svn\stm32\stm32_high\sw\prj\RIDE\all_demo\stm32f10x_cec.o
 .debug_abbrev  0x00004c79      0x134 D:\svn\stm32\stm32_high\sw\prj\RIDE\all_demo\stm32f10x_crc.o
 .debug_abbrev  0x00004dad      0x1b7 D:\svn\stm32\stm32_high\sw\prj\RIDE\all_demo\stm32f10x_dac.o
 .debug_abbrev  0x00004f64       0xeb D:\svn\stm32\stm32_high\sw\prj\RIDE\all_demo\stm32f10x_dbgmcu.o
 .debug_abbrev  0x0000504f      0x176 D:\svn\stm32\stm32_high\sw\prj\RIDE\all_demo\stm32f10x_dma.o
 .debug_abbrev  0x000051c5      0x172 D:\svn\stm32\stm32_high\sw\prj\RIDE\all_demo\stm32f10x_exti.o
 .debug_abbrev  0x00005337      0x199 D:\svn\stm32\stm32_high\sw\prj\RIDE\all_demo\stm32f10x_flash.o
 .debug_abbrev  0x000054d0      0x1b4 D:\svn\stm32\stm32_high\sw\prj\RIDE\all_demo\stm32f10x_fsmc.o
 .debug_abbrev  0x00005684      0x1db D:\svn\stm32\stm32_high\sw\prj\RIDE\all_demo\stm32f10x_gpio.o
 .debug_abbrev  0x0000585f      0x196 D:\svn\stm32\stm32_high\sw\prj\RIDE\all_demo\stm32f10x_i2c.o
 .debug_abbrev  0x000059f5      0x10b D:\svn\stm32\stm32_high\sw\prj\RIDE\all_demo\stm32f10x_iwdg.o
 .debug_abbrev  0x00005b00      0x186 D:\svn\stm32\stm32_high\sw\prj\RIDE\all_demo\stm32f10x_pwr.o
 .debug_abbrev  0x00005c86      0x1d2 D:\svn\stm32\stm32_high\sw\prj\RIDE\all_demo\stm32f10x_rcc.o
 .debug_abbrev  0x00005e58      0x19d D:\svn\stm32\stm32_high\sw\prj\RIDE\all_demo\stm32f10x_rtc.o
 .debug_abbrev  0x00005ff5      0x1fa D:\svn\stm32\stm32_high\sw\prj\RIDE\all_demo\stm32f10x_sdio.o
 .debug_abbrev  0x000061ef      0x1b2 D:\svn\stm32\stm32_high\sw\prj\RIDE\all_demo\stm32f10x_spi.o
 .debug_abbrev  0x000063a1      0x23c D:\svn\stm32\stm32_high\sw\prj\RIDE\all_demo\stm32f10x_tim.o
 .debug_abbrev  0x000065dd      0x1ab D:\svn\stm32\stm32_high\sw\prj\RIDE\all_demo\stm32f10x_usart.o

.debug_line     0x00000000     0xf2e6
 *(.debug_line)
 .debug_line    0x00000000      0x428 D:\svn\stm32\stm32_high\sw\prj\RIDE\all_demo\vs1003b.o
 .debug_line    0x00000428      0x231 D:\svn\stm32\stm32_high\sw\prj\RIDE\all_demo\adc.o
 .debug_line    0x00000659      0x2cb D:\svn\stm32\stm32_high\sw\prj\RIDE\all_demo\at24c02.o
 .debug_line    0x00000924      0x229 D:\svn\stm32\stm32_high\sw\prj\RIDE\all_demo\buzzer.o
 .debug_line    0x00000b4d      0x2fe D:\svn\stm32\stm32_high\sw\prj\RIDE\all_demo\can.o
 .debug_line    0x00000e4b      0x244 D:\svn\stm32\stm32_high\sw\prj\RIDE\all_demo\dac.o
 .debug_line    0x0000108f      0x258 D:\svn\stm32\stm32_high\sw\prj\RIDE\all_demo\diskio.o
 .debug_line    0x000012e7      0xad2 D:\svn\stm32\stm32_high\sw\prj\RIDE\all_demo\ff.o
 .debug_line    0x00001db9       0x46 D:\svn\stm32\stm32_high\sw\prj\RIDE\all_demo\font.o
 .debug_line    0x00001dff      0x417 D:\svn\stm32\stm32_high\sw\prj\RIDE\all_demo\hw_config.o
 .debug_line    0x00002216       0x46 D:\svn\stm32\stm32_high\sw\prj\RIDE\all_demo\icon.o
 .debug_line    0x0000225c      0x2ce D:\svn\stm32\stm32_high\sw\prj\RIDE\all_demo\iic.o
 .debug_line    0x0000252a      0x2d2 D:\svn\stm32\stm32_high\sw\prj\RIDE\all_demo\key.o
 .debug_line    0x000027fc      0x4e2 D:\svn\stm32\stm32_high\sw\prj\RIDE\all_demo\lcd28.o
 .debug_line    0x00002cde      0x4e5 D:\svn\stm32\stm32_high\sw\prj\RIDE\all_demo\lcd32.o
 .debug_line    0x000031c3      0x52c D:\svn\stm32\stm32_high\sw\prj\RIDE\all_demo\lcd43.o
 .debug_line    0x000036ef      0x491 D:\svn\stm32\stm32_high\sw\prj\RIDE\all_demo\lcd70.o
 .debug_line    0x00003b80      0x31f D:\svn\stm32\stm32_high\sw\prj\RIDE\all_demo\lcd1602.o
 .debug_line    0x00003e9f      0x38f D:\svn\stm32\stm32_high\sw\prj\RIDE\all_demo\lcd12864.o
 .debug_line    0x0000422e      0x32b D:\svn\stm32\stm32_high\sw\prj\RIDE\all_demo\lcd.o
 .debug_line    0x00004559      0x295 D:\svn\stm32\stm32_high\sw\prj\RIDE\all_demo\led.o
 .debug_line    0x000047ee      0xd41 D:\svn\stm32\stm32_high\sw\prj\RIDE\all_demo\main.o
 .debug_line    0x0000552f      0x5a1 D:\svn\stm32\stm32_high\sw\prj\RIDE\all_demo\mmc_sd.o
 .debug_line    0x00005ad0      0x327 D:\svn\stm32\stm32_high\sw\prj\RIDE\all_demo\nrf24l01.o
 .debug_line    0x00005df7      0x24a D:\svn\stm32\stm32_high\sw\prj\RIDE\all_demo\queue.o
 .debug_line    0x00006041      0x24d D:\svn\stm32\stm32_high\sw\prj\RIDE\all_demo\rs485.o
 .debug_line    0x0000628e      0x234 D:\svn\stm32\stm32_high\sw\prj\RIDE\all_demo\rtc.o
 .debug_line    0x000064c2      0x292 D:\svn\stm32\stm32_high\sw\prj\RIDE\all_demo\spi.o
 .debug_line    0x00006754      0x2f5 D:\svn\stm32\stm32_high\sw\prj\RIDE\all_demo\stm32f10x_it.o
 .debug_line    0x00006a49      0x27e D:\svn\stm32\stm32_high\sw\prj\RIDE\all_demo\timer.o
 .debug_line    0x00006cc7      0x755 D:\svn\stm32\stm32_high\sw\prj\RIDE\all_demo\touch.o
 .debug_line    0x0000741c      0x55d D:\svn\stm32\stm32_high\sw\prj\RIDE\all_demo\usart.o
 .debug_line    0x00007979      0x116 D:\svn\stm32\stm32_high\sw\prj\RIDE\all_demo\usb_desc.o
 .debug_line    0x00007a8f      0x1f9 D:\svn\stm32\stm32_high\sw\prj\RIDE\all_demo\usb_istr.o
 .debug_line    0x00007c88      0x338 D:\svn\stm32\stm32_high\sw\prj\RIDE\all_demo\usb_prop.o
 .debug_line    0x00007fc0      0x2af D:\svn\stm32\stm32_high\sw\prj\RIDE\all_demo\usb_pwr.o
 .debug_line    0x0000826f      0x24f D:\svn\stm32\stm32_high\sw\prj\RIDE\all_demo\system_stm32f10x.o
 .debug_line    0x000084be      0x1ff D:\svn\stm32\stm32_high\sw\prj\RIDE\all_demo\usb_sil.o
 .debug_line    0x000086bd        0x0 D:\svn\stm32\stm32_high\sw\prj\RIDE\all_demo\otgd_fs_cal.o
 .debug_line    0x000086bd        0x0 D:\svn\stm32\stm32_high\sw\prj\RIDE\all_demo\otgd_fs_dev.o
 .debug_line    0x000086bd        0x0 D:\svn\stm32\stm32_high\sw\prj\RIDE\all_demo\otgd_fs_int.o
 .debug_line    0x000086bd        0x0 D:\svn\stm32\stm32_high\sw\prj\RIDE\all_demo\otgd_fs_pcd.o
 .debug_line    0x000086bd      0x4c7 D:\svn\stm32\stm32_high\sw\prj\RIDE\all_demo\usb_core.o
 .debug_line    0x00008b84      0x1e5 D:\svn\stm32\stm32_high\sw\prj\RIDE\all_demo\usb_init.o
 .debug_line    0x00008d69      0x2ce D:\svn\stm32\stm32_high\sw\prj\RIDE\all_demo\usb_int.o
 .debug_line    0x00009037      0x1a8 D:\svn\stm32\stm32_high\sw\prj\RIDE\all_demo\usb_mem.o
 .debug_line    0x000091df      0x6a6 D:\svn\stm32\stm32_high\sw\prj\RIDE\all_demo\usb_regs.o
 .debug_line    0x00009885      0x261 D:\svn\stm32\stm32_high\sw\prj\RIDE\all_demo\stm32f10x_wwdg.o
 .debug_line    0x00009ae6      0x28a D:\svn\stm32\stm32_high\sw\prj\RIDE\all_demo\misc.o
 .debug_line    0x00009d70      0x550 D:\svn\stm32\stm32_high\sw\prj\RIDE\all_demo\stm32f10x_adc.o
 .debug_line    0x0000a2c0      0x2af D:\svn\stm32\stm32_high\sw\prj\RIDE\all_demo\stm32f10x_bkp.o
 .debug_line    0x0000a56f      0x566 D:\svn\stm32\stm32_high\sw\prj\RIDE\all_demo\stm32f10x_can.o
 .debug_line    0x0000aad5      0x34c D:\svn\stm32\stm32_high\sw\prj\RIDE\all_demo\stm32f10x_cec.o
 .debug_line    0x0000ae21      0x245 D:\svn\stm32\stm32_high\sw\prj\RIDE\all_demo\stm32f10x_crc.o
 .debug_line    0x0000b066      0x328 D:\svn\stm32\stm32_high\sw\prj\RIDE\all_demo\stm32f10x_dac.o
 .debug_line    0x0000b38e      0x204 D:\svn\stm32\stm32_high\sw\prj\RIDE\all_demo\stm32f10x_dbgmcu.o
 .debug_line    0x0000b592      0x339 D:\svn\stm32\stm32_high\sw\prj\RIDE\all_demo\stm32f10x_dma.o
 .debug_line    0x0000b8cb      0x2eb D:\svn\stm32\stm32_high\sw\prj\RIDE\all_demo\stm32f10x_exti.o
 .debug_line    0x0000bbb6      0x51b D:\svn\stm32\stm32_high\sw\prj\RIDE\all_demo\stm32f10x_flash.o
 .debug_line    0x0000c0d1      0x46c D:\svn\stm32\stm32_high\sw\prj\RIDE\all_demo\stm32f10x_fsmc.o
 .debug_line    0x0000c53d      0x3ec D:\svn\stm32\stm32_high\sw\prj\RIDE\all_demo\stm32f10x_gpio.o
 .debug_line    0x0000c929      0x507 D:\svn\stm32\stm32_high\sw\prj\RIDE\all_demo\stm32f10x_i2c.o
 .debug_line    0x0000ce30      0x238 D:\svn\stm32\stm32_high\sw\prj\RIDE\all_demo\stm32f10x_iwdg.o
 .debug_line    0x0000d068      0x2a0 D:\svn\stm32\stm32_high\sw\prj\RIDE\all_demo\stm32f10x_pwr.o
 .debug_line    0x0000d308      0x4e1 D:\svn\stm32\stm32_high\sw\prj\RIDE\all_demo\stm32f10x_rcc.o
 .debug_line    0x0000d7e9      0x2ee D:\svn\stm32\stm32_high\sw\prj\RIDE\all_demo\stm32f10x_rtc.o
 .debug_line    0x0000dad7      0x48a D:\svn\stm32\stm32_high\sw\prj\RIDE\all_demo\stm32f10x_sdio.o
 .debug_line    0x0000df61      0x454 D:\svn\stm32\stm32_high\sw\prj\RIDE\all_demo\stm32f10x_spi.o
 .debug_line    0x0000e3b5      0xa62 D:\svn\stm32\stm32_high\sw\prj\RIDE\all_demo\stm32f10x_tim.o
 .debug_line    0x0000ee17      0x4cf D:\svn\stm32\stm32_high\sw\prj\RIDE\all_demo\stm32f10x_usart.o

.debug_frame    0x00000000     0x581c
 *(.debug_frame)
 .debug_frame   0x00000000      0x1cc D:\svn\stm32\stm32_high\sw\prj\RIDE\all_demo\vs1003b.o
 .debug_frame   0x000001cc       0x48 D:\svn\stm32\stm32_high\sw\prj\RIDE\all_demo\adc.o
 .debug_frame   0x00000214      0x100 D:\svn\stm32\stm32_high\sw\prj\RIDE\all_demo\at24c02.o
 .debug_frame   0x00000314       0x74 D:\svn\stm32\stm32_high\sw\prj\RIDE\all_demo\buzzer.o
 .debug_frame   0x00000388       0xb4 D:\svn\stm32\stm32_high\sw\prj\RIDE\all_demo\can.o
 .debug_frame   0x0000043c       0x4c D:\svn\stm32\stm32_high\sw\prj\RIDE\all_demo\dac.o
 .debug_frame   0x00000488       0x94 D:\svn\stm32\stm32_high\sw\prj\RIDE\all_demo\diskio.o
 .debug_frame   0x0000051c      0x484 D:\svn\stm32\stm32_high\sw\prj\RIDE\all_demo\ff.o
 .debug_frame   0x000009a0      0x130 D:\svn\stm32\stm32_high\sw\prj\RIDE\all_demo\hw_config.o
 .debug_frame   0x00000ad0       0xe4 D:\svn\stm32\stm32_high\sw\prj\RIDE\all_demo\iic.o
 .debug_frame   0x00000bb4       0xac D:\svn\stm32\stm32_high\sw\prj\RIDE\all_demo\key.o
 .debug_frame   0x00000c60      0x1c4 D:\svn\stm32\stm32_high\sw\prj\RIDE\all_demo\lcd28.o
 .debug_frame   0x00000e24      0x1c4 D:\svn\stm32\stm32_high\sw\prj\RIDE\all_demo\lcd32.o
 .debug_frame   0x00000fe8      0x2dc D:\svn\stm32\stm32_high\sw\prj\RIDE\all_demo\lcd43.o
 .debug_frame   0x000012c4      0x268 D:\svn\stm32\stm32_high\sw\prj\RIDE\all_demo\lcd70.o
 .debug_frame   0x0000152c      0x14c D:\svn\stm32\stm32_high\sw\prj\RIDE\all_demo\lcd1602.o
 .debug_frame   0x00001678      0x198 D:\svn\stm32\stm32_high\sw\prj\RIDE\all_demo\lcd12864.o
 .debug_frame   0x00001810       0xe4 D:\svn\stm32\stm32_high\sw\prj\RIDE\all_demo\lcd.o
 .debug_frame   0x000018f4       0xc4 D:\svn\stm32\stm32_high\sw\prj\RIDE\all_demo\led.o
 .debug_frame   0x000019b8      0x724 D:\svn\stm32\stm32_high\sw\prj\RIDE\all_demo\main.o
 .debug_frame   0x000020dc      0x264 D:\svn\stm32\stm32_high\sw\prj\RIDE\all_demo\mmc_sd.o
 .debug_frame   0x00002340      0x12c D:\svn\stm32\stm32_high\sw\prj\RIDE\all_demo\nrf24l01.o
 .debug_frame   0x0000246c       0xa8 D:\svn\stm32\stm32_high\sw\prj\RIDE\all_demo\queue.o
 .debug_frame   0x00002514       0x90 D:\svn\stm32\stm32_high\sw\prj\RIDE\all_demo\rs485.o
 .debug_frame   0x000025a4       0x90 D:\svn\stm32\stm32_high\sw\prj\RIDE\all_demo\rtc.o
 .debug_frame   0x00002634       0x8c D:\svn\stm32\stm32_high\sw\prj\RIDE\all_demo\spi.o
 .debug_frame   0x000026c0       0xcc D:\svn\stm32\stm32_high\sw\prj\RIDE\all_demo\stm32f10x_it.o
 .debug_frame   0x0000278c       0x78 D:\svn\stm32\stm32_high\sw\prj\RIDE\all_demo\timer.o
 .debug_frame   0x00002804      0x318 D:\svn\stm32\stm32_high\sw\prj\RIDE\all_demo\touch.o
 .debug_frame   0x00002b1c      0x260 D:\svn\stm32\stm32_high\sw\prj\RIDE\all_demo\usart.o
 .debug_frame   0x00002d7c       0x28 D:\svn\stm32\stm32_high\sw\prj\RIDE\all_demo\usb_istr.o
 .debug_frame   0x00002da4      0x158 D:\svn\stm32\stm32_high\sw\prj\RIDE\all_demo\usb_prop.o
 .debug_frame   0x00002efc       0x8c D:\svn\stm32\stm32_high\sw\prj\RIDE\all_demo\usb_pwr.o
 .debug_frame   0x00002f88       0x34 D:\svn\stm32\stm32_high\sw\prj\RIDE\all_demo\system_stm32f10x.o
 .debug_frame   0x00002fbc       0x58 D:\svn\stm32\stm32_high\sw\prj\RIDE\all_demo\usb_sil.o
 .debug_frame   0x00003014      0x19c D:\svn\stm32\stm32_high\sw\prj\RIDE\all_demo\usb_core.o
 .debug_frame   0x000031b0       0x28 D:\svn\stm32\stm32_high\sw\prj\RIDE\all_demo\usb_init.o
 .debug_frame   0x000031d8       0x4c D:\svn\stm32\stm32_high\sw\prj\RIDE\all_demo\usb_int.o
 .debug_frame   0x00003224       0x38 D:\svn\stm32\stm32_high\sw\prj\RIDE\all_demo\usb_mem.o
 .debug_frame   0x0000325c      0x3dc D:\svn\stm32\stm32_high\sw\prj\RIDE\all_demo\usb_regs.o
 .debug_frame   0x00003638       0x9c D:\svn\stm32\stm32_high\sw\prj\RIDE\all_demo\stm32f10x_wwdg.o
 .debug_frame   0x000036d4       0x68 D:\svn\stm32\stm32_high\sw\prj\RIDE\all_demo\misc.o
 .debug_frame   0x0000373c      0x280 D:\svn\stm32\stm32_high\sw\prj\RIDE\all_demo\stm32f10x_adc.o
 .debug_frame   0x000039bc       0xe0 D:\svn\stm32\stm32_high\sw\prj\RIDE\all_demo\stm32f10x_bkp.o
 .debug_frame   0x00003a9c      0x1d0 D:\svn\stm32\stm32_high\sw\prj\RIDE\all_demo\stm32f10x_can.o
 .debug_frame   0x00003c6c      0x100 D:\svn\stm32\stm32_high\sw\prj\RIDE\all_demo\stm32f10x_cec.o
 .debug_frame   0x00003d6c       0x78 D:\svn\stm32\stm32_high\sw\prj\RIDE\all_demo\stm32f10x_crc.o
 .debug_frame   0x00003de4       0xec D:\svn\stm32\stm32_high\sw\prj\RIDE\all_demo\stm32f10x_dac.o
 .debug_frame   0x00003ed0       0x40 D:\svn\stm32\stm32_high\sw\prj\RIDE\all_demo\stm32f10x_dbgmcu.o
 .debug_frame   0x00003f10       0xc8 D:\svn\stm32\stm32_high\sw\prj\RIDE\all_demo\stm32f10x_dma.o
 .debug_frame   0x00003fd8       0x98 D:\svn\stm32\stm32_high\sw\prj\RIDE\all_demo\stm32f10x_exti.o
 .debug_frame   0x00004070      0x24c D:\svn\stm32\stm32_high\sw\prj\RIDE\all_demo\stm32f10x_flash.o
 .debug_frame   0x000042bc      0x160 D:\svn\stm32\stm32_high\sw\prj\RIDE\all_demo\stm32f10x_fsmc.o
 .debug_frame   0x0000441c      0x168 D:\svn\stm32\stm32_high\sw\prj\RIDE\all_demo\stm32f10x_gpio.o
 .debug_frame   0x00004584      0x240 D:\svn\stm32\stm32_high\sw\prj\RIDE\all_demo\stm32f10x_i2c.o
 .debug_frame   0x000047c4       0x70 D:\svn\stm32\stm32_high\sw\prj\RIDE\all_demo\stm32f10x_iwdg.o
 .debug_frame   0x00004834       0xa8 D:\svn\stm32\stm32_high\sw\prj\RIDE\all_demo\stm32f10x_pwr.o
 .debug_frame   0x000048dc      0x224 D:\svn\stm32\stm32_high\sw\prj\RIDE\all_demo\stm32f10x_rcc.o
 .debug_frame   0x00004b00      0x108 D:\svn\stm32\stm32_high\sw\prj\RIDE\all_demo\stm32f10x_rtc.o
 .debug_frame   0x00004c08      0x20c D:\svn\stm32\stm32_high\sw\prj\RIDE\all_demo\stm32f10x_sdio.o
 .debug_frame   0x00004e14      0x1ac D:\svn\stm32\stm32_high\sw\prj\RIDE\all_demo\stm32f10x_spi.o
 .debug_frame   0x00004fc0      0x64c D:\svn\stm32\stm32_high\sw\prj\RIDE\all_demo\stm32f10x_tim.o
 .debug_frame   0x0000560c      0x210 D:\svn\stm32\stm32_high\sw\prj\RIDE\all_demo\stm32f10x_usart.o

.debug_str      0x00000000     0x9d81
 *(.debug_str)
 .debug_str     0x00000000      0x348 D:\svn\stm32\stm32_high\sw\prj\RIDE\all_demo\vs1003b.o
                                0x396 (size before relaxing)
 .debug_str     0x00000348      0x14e D:\svn\stm32\stm32_high\sw\prj\RIDE\all_demo\adc.o
                                0x36a (size before relaxing)
 .debug_str     0x00000496      0x109 D:\svn\stm32\stm32_high\sw\prj\RIDE\all_demo\at24c02.o
                                0x32a (size before relaxing)
 .debug_str     0x0000059f       0x62 D:\svn\stm32\stm32_high\sw\prj\RIDE\all_demo\buzzer.o
                                0x276 (size before relaxing)
 .debug_str     0x00000601      0x748 D:\svn\stm32\stm32_high\sw\prj\RIDE\all_demo\can.o
                                0x997 (size before relaxing)
 .debug_str     0x00000d49      0x285 D:\svn\stm32\stm32_high\sw\prj\RIDE\all_demo\dac.o
                                0x4ee (size before relaxing)
 .debug_str     0x00000fce       0xc7 D:\svn\stm32\stm32_high\sw\prj\RIDE\all_demo\diskio.o
                                0x1e6 (size before relaxing)
 .debug_str     0x00001095      0x437 D:\svn\stm32\stm32_high\sw\prj\RIDE\all_demo\ff.o
                                0x5a8 (size before relaxing)
 .debug_str     0x000014cc       0x44 D:\svn\stm32\stm32_high\sw\prj\RIDE\all_demo\font.o
                                 0x6b (size before relaxing)
 .debug_str     0x00001510      0x434 D:\svn\stm32\stm32_high\sw\prj\RIDE\all_demo\hw_config.o
                                0xb38 (size before relaxing)
 .debug_str     0x00001944       0x30 D:\svn\stm32\stm32_high\sw\prj\RIDE\all_demo\icon.o
                                 0x57 (size before relaxing)
 .debug_str     0x00001974       0xaa D:\svn\stm32\stm32_high\sw\prj\RIDE\all_demo\iic.o
                                0x1ad (size before relaxing)
 .debug_str     0x00001a1e      0x2c8 D:\svn\stm32\stm32_high\sw\prj\RIDE\all_demo\key.o
                                0x9d4 (size before relaxing)
 .debug_str     0x00001ce6      0x180 D:\svn\stm32\stm32_high\sw\prj\RIDE\all_demo\lcd28.o
                                0x2c0 (size before relaxing)
 .debug_str     0x00001e66      0x10f D:\svn\stm32\stm32_high\sw\prj\RIDE\all_demo\lcd32.o
                                0x2c0 (size before relaxing)
 .debug_str     0x00001f75      0x1ac D:\svn\stm32\stm32_high\sw\prj\RIDE\all_demo\lcd43.o
                                0x353 (size before relaxing)
 .debug_str     0x00002121      0x1b2 D:\svn\stm32\stm32_high\sw\prj\RIDE\all_demo\lcd70.o
                                0x371 (size before relaxing)
 .debug_str     0x000022d3      0x10d D:\svn\stm32\stm32_high\sw\prj\RIDE\all_demo\lcd1602.o
                                0x32e (size before relaxing)
 .debug_str     0x000023e0      0x12f D:\svn\stm32\stm32_high\sw\prj\RIDE\all_demo\lcd12864.o
                                0x355 (size before relaxing)
 .debug_str     0x0000250f      0x30b D:\svn\stm32\stm32_high\sw\prj\RIDE\all_demo\lcd.o
                                0x55a (size before relaxing)
 .debug_str     0x0000281a      0x173 D:\svn\stm32\stm32_high\sw\prj\RIDE\all_demo\led.o
                                0x398 (size before relaxing)
 .debug_str     0x0000298d      0xe32 D:\svn\stm32\stm32_high\sw\prj\RIDE\all_demo\main.o
                               0x143c (size before relaxing)
 .debug_str     0x000037bf      0x26e D:\svn\stm32\stm32_high\sw\prj\RIDE\all_demo\mmc_sd.o
                                0x563 (size before relaxing)
 .debug_str     0x00003a2d      0x111 D:\svn\stm32\stm32_high\sw\prj\RIDE\all_demo\nrf24l01.o
                                0x46b (size before relaxing)
 .debug_str     0x00003b3e       0xca D:\svn\stm32\stm32_high\sw\prj\RIDE\all_demo\queue.o
                                0x1c9 (size before relaxing)
 .debug_str     0x00003c08       0x6f D:\svn\stm32\stm32_high\sw\prj\RIDE\all_demo\rs485.o
                                0x28d (size before relaxing)
 .debug_str     0x00003c77      0x103 D:\svn\stm32\stm32_high\sw\prj\RIDE\all_demo\rtc.o
                                0x370 (size before relaxing)
 .debug_str     0x00003d7a       0xa1 D:\svn\stm32\stm32_high\sw\prj\RIDE\all_demo\spi.o
                                0x2c1 (size before relaxing)
 .debug_str     0x00003e1b       0xf6 D:\svn\stm32\stm32_high\sw\prj\RIDE\all_demo\stm32f10x_it.o
                                0x4e4 (size before relaxing)
 .debug_str     0x00003f11      0x179 D:\svn\stm32\stm32_high\sw\prj\RIDE\all_demo\timer.o
                                0x83a (size before relaxing)
 .debug_str     0x0000408a      0x243 D:\svn\stm32\stm32_high\sw\prj\RIDE\all_demo\touch.o
                                0xbb3 (size before relaxing)
 .debug_str     0x000042cd      0x545 D:\svn\stm32\stm32_high\sw\prj\RIDE\all_demo\usart.o
                                0xd08 (size before relaxing)
 .debug_str     0x00004812       0xbb D:\svn\stm32\stm32_high\sw\prj\RIDE\all_demo\usb_desc.o
                                0x1ab (size before relaxing)
 .debug_str     0x000048cd      0x1b7 D:\svn\stm32\stm32_high\sw\prj\RIDE\all_demo\usb_istr.o
                                0x312 (size before relaxing)
 .debug_str     0x00004a84      0x4bd D:\svn\stm32\stm32_high\sw\prj\RIDE\all_demo\usb_prop.o
                                0x99a (size before relaxing)
 .debug_str     0x00004f41       0x7a D:\svn\stm32\stm32_high\sw\prj\RIDE\all_demo\usb_pwr.o
                                0x2ce (size before relaxing)
 .debug_str     0x00004fbb      0x122 D:\svn\stm32\stm32_high\sw\prj\RIDE\all_demo\system_stm32f10x.o
                                0x2c4 (size before relaxing)
 .debug_str     0x000050dd       0xbc D:\svn\stm32\stm32_high\sw\prj\RIDE\all_demo\usb_sil.o
                                0x1c3 (size before relaxing)
 .debug_str     0x00005199      0x3b8 D:\svn\stm32\stm32_high\sw\prj\RIDE\all_demo\usb_core.o
                                0xa21 (size before relaxing)
 .debug_str     0x00005551       0x8d D:\svn\stm32\stm32_high\sw\prj\RIDE\all_demo\usb_init.o
                                0x500 (size before relaxing)
 .debug_str     0x000055de       0x86 D:\svn\stm32\stm32_high\sw\prj\RIDE\all_demo\usb_int.o
                                0x1b4 (size before relaxing)
 .debug_str     0x00005664       0xc9 D:\svn\stm32\stm32_high\sw\prj\RIDE\all_demo\usb_mem.o
                                0x1b5 (size before relaxing)
 .debug_str     0x0000572d      0x435 D:\svn\stm32\stm32_high\sw\prj\RIDE\all_demo\usb_regs.o
                                0x53d (size before relaxing)
 .debug_str     0x00005b62      0x119 D:\svn\stm32\stm32_high\sw\prj\RIDE\all_demo\stm32f10x_wwdg.o
                                0x230 (size before relaxing)
 .debug_str     0x00005c7b      0x12d D:\svn\stm32\stm32_high\sw\prj\RIDE\all_demo\misc.o
                                0x391 (size before relaxing)
 .debug_str     0x00005da8      0x496 D:\svn\stm32\stm32_high\sw\prj\RIDE\all_demo\stm32f10x_adc.o
                                0x6c3 (size before relaxing)
 .debug_str     0x0000623e      0x360 D:\svn\stm32\stm32_high\sw\prj\RIDE\all_demo\stm32f10x_bkp.o
                                0x57d (size before relaxing)
 .debug_str     0x0000659e      0x330 D:\svn\stm32\stm32_high\sw\prj\RIDE\all_demo\stm32f10x_can.o
                                0x6f6 (size before relaxing)
 .debug_str     0x000068ce      0x1e8 D:\svn\stm32\stm32_high\sw\prj\RIDE\all_demo\stm32f10x_cec.o
                                0x33e (size before relaxing)
 .debug_str     0x00006ab6       0xf0 D:\svn\stm32\stm32_high\sw\prj\RIDE\all_demo\stm32f10x_crc.o
                                0x203 (size before relaxing)
 .debug_str     0x00006ba6      0x1e8 D:\svn\stm32\stm32_high\sw\prj\RIDE\all_demo\stm32f10x_dac.o
                                0x377 (size before relaxing)
 .debug_str     0x00006d8e       0xcc D:\svn\stm32\stm32_high\sw\prj\RIDE\all_demo\stm32f10x_dbgmcu.o
                                0x1cf (size before relaxing)
 .debug_str     0x00006e5a      0x175 D:\svn\stm32\stm32_high\sw\prj\RIDE\all_demo\stm32f10x_dma.o
                                0x389 (size before relaxing)
 .debug_str     0x00006fcf      0x12e D:\svn\stm32\stm32_high\sw\prj\RIDE\all_demo\stm32f10x_exti.o
                                0x326 (size before relaxing)
 .debug_str     0x000070fd      0x437 D:\svn\stm32\stm32_high\sw\prj\RIDE\all_demo\stm32f10x_flash.o
                                0x5b0 (size before relaxing)
 .debug_str     0x00007534      0x426 D:\svn\stm32\stm32_high\sw\prj\RIDE\all_demo\stm32f10x_fsmc.o
                                0x74c (size before relaxing)
 .debug_str     0x0000795a      0x255 D:\svn\stm32\stm32_high\sw\prj\RIDE\all_demo\stm32f10x_gpio.o
                                0x4e1 (size before relaxing)
 .debug_str     0x00007baf      0x3f0 D:\svn\stm32\stm32_high\sw\prj\RIDE\all_demo\stm32f10x_i2c.o
                                0x62e (size before relaxing)
 .debug_str     0x00007f9f      0x116 D:\svn\stm32\stm32_high\sw\prj\RIDE\all_demo\stm32f10x_iwdg.o
                                0x224 (size before relaxing)
 .debug_str     0x000080b5      0x156 D:\svn\stm32\stm32_high\sw\prj\RIDE\all_demo\stm32f10x_pwr.o
                                0x2ea (size before relaxing)
 .debug_str     0x0000820b      0x396 D:\svn\stm32\stm32_high\sw\prj\RIDE\all_demo\stm32f10x_rcc.o
                                0x5e2 (size before relaxing)
 .debug_str     0x000085a1      0x1da D:\svn\stm32\stm32_high\sw\prj\RIDE\all_demo\stm32f10x_rtc.o
                                0x376 (size before relaxing)
 .debug_str     0x0000877b      0x4b4 D:\svn\stm32\stm32_high\sw\prj\RIDE\all_demo\stm32f10x_sdio.o
                                0x603 (size before relaxing)
 .debug_str     0x00008c2f      0x2ee D:\svn\stm32\stm32_high\sw\prj\RIDE\all_demo\stm32f10x_spi.o
                                0x5c5 (size before relaxing)
 .debug_str     0x00008f1d      0xa8c D:\svn\stm32\stm32_high\sw\prj\RIDE\all_demo\stm32f10x_tim.o
                                0xda5 (size before relaxing)
 .debug_str     0x000099a9      0x3d8 D:\svn\stm32\stm32_high\sw\prj\RIDE\all_demo\stm32f10x_usart.o
                                0x658 (size before relaxing)

.debug_loc      0x00000000    0x12a6a
 *(.debug_loc)
 .debug_loc     0x00000000      0x568 D:\svn\stm32\stm32_high\sw\prj\RIDE\all_demo\vs1003b.o
 .debug_loc     0x00000568       0x94 D:\svn\stm32\stm32_high\sw\prj\RIDE\all_demo\adc.o
 .debug_loc     0x000005fc      0x346 D:\svn\stm32\stm32_high\sw\prj\RIDE\all_demo\at24c02.o
 .debug_loc     0x00000942       0x8c D:\svn\stm32\stm32_high\sw\prj\RIDE\all_demo\buzzer.o
 .debug_loc     0x000009ce      0x19d D:\svn\stm32\stm32_high\sw\prj\RIDE\all_demo\can.o
 .debug_loc     0x00000b6b       0x59 D:\svn\stm32\stm32_high\sw\prj\RIDE\all_demo\dac.o
 .debug_loc     0x00000bc4      0x354 D:\svn\stm32\stm32_high\sw\prj\RIDE\all_demo\diskio.o
 .debug_loc     0x00000f18     0x2aa8 D:\svn\stm32\stm32_high\sw\prj\RIDE\all_demo\ff.o
 .debug_loc     0x000039c0      0x2a2 D:\svn\stm32\stm32_high\sw\prj\RIDE\all_demo\hw_config.o
 .debug_loc     0x00003c62      0x21e D:\svn\stm32\stm32_high\sw\prj\RIDE\all_demo\iic.o
 .debug_loc     0x00003e80       0x78 D:\svn\stm32\stm32_high\sw\prj\RIDE\all_demo\key.o
 .debug_loc     0x00003ef8      0x7e3 D:\svn\stm32\stm32_high\sw\prj\RIDE\all_demo\lcd28.o
 .debug_loc     0x000046db      0x7e3 D:\svn\stm32\stm32_high\sw\prj\RIDE\all_demo\lcd32.o
 .debug_loc     0x00004ebe     0x1207 D:\svn\stm32\stm32_high\sw\prj\RIDE\all_demo\lcd43.o
 .debug_loc     0x000060c5      0xe76 D:\svn\stm32\stm32_high\sw\prj\RIDE\all_demo\lcd70.o
 .debug_loc     0x00006f3b      0x2fb D:\svn\stm32\stm32_high\sw\prj\RIDE\all_demo\lcd1602.o
 .debug_loc     0x00007236      0x5d4 D:\svn\stm32\stm32_high\sw\prj\RIDE\all_demo\lcd12864.o
 .debug_loc     0x0000780a      0x207 D:\svn\stm32\stm32_high\sw\prj\RIDE\all_demo\lcd.o
 .debug_loc     0x00007a11      0x19a D:\svn\stm32\stm32_high\sw\prj\RIDE\all_demo\led.o
 .debug_loc     0x00007bab      0xdf8 D:\svn\stm32\stm32_high\sw\prj\RIDE\all_demo\main.o
 .debug_loc     0x000089a3      0xd4a D:\svn\stm32\stm32_high\sw\prj\RIDE\all_demo\mmc_sd.o
 .debug_loc     0x000096ed      0x361 D:\svn\stm32\stm32_high\sw\prj\RIDE\all_demo\nrf24l01.o
 .debug_loc     0x00009a4e       0xf5 D:\svn\stm32\stm32_high\sw\prj\RIDE\all_demo\queue.o
 .debug_loc     0x00009b43       0xca D:\svn\stm32\stm32_high\sw\prj\RIDE\all_demo\rs485.o
 .debug_loc     0x00009c0d       0x80 D:\svn\stm32\stm32_high\sw\prj\RIDE\all_demo\rtc.o
 .debug_loc     0x00009c8d      0x169 D:\svn\stm32\stm32_high\sw\prj\RIDE\all_demo\spi.o
 .debug_loc     0x00009df6       0x2c D:\svn\stm32\stm32_high\sw\prj\RIDE\all_demo\stm32f10x_it.o
 .debug_loc     0x00009e22       0x4c D:\svn\stm32\stm32_high\sw\prj\RIDE\all_demo\timer.o
 .debug_loc     0x00009e6e      0xe80 D:\svn\stm32\stm32_high\sw\prj\RIDE\all_demo\touch.o
 .debug_loc     0x0000acee      0x5a6 D:\svn\stm32\stm32_high\sw\prj\RIDE\all_demo\usart.o
 .debug_loc     0x0000b294       0x20 D:\svn\stm32\stm32_high\sw\prj\RIDE\all_demo\usb_istr.o
 .debug_loc     0x0000b2b4      0x282 D:\svn\stm32\stm32_high\sw\prj\RIDE\all_demo\usb_prop.o
 .debug_loc     0x0000b536      0x12e D:\svn\stm32\stm32_high\sw\prj\RIDE\all_demo\usb_pwr.o
 .debug_loc     0x0000b664       0xfe D:\svn\stm32\stm32_high\sw\prj\RIDE\all_demo\system_stm32f10x.o
 .debug_loc     0x0000b762       0xea D:\svn\stm32\stm32_high\sw\prj\RIDE\all_demo\usb_sil.o
 .debug_loc     0x0000b84c      0xad9 D:\svn\stm32\stm32_high\sw\prj\RIDE\all_demo\usb_core.o
 .debug_loc     0x0000c325       0x20 D:\svn\stm32\stm32_high\sw\prj\RIDE\all_demo\usb_init.o
 .debug_loc     0x0000c345      0x1a9 D:\svn\stm32\stm32_high\sw\prj\RIDE\all_demo\usb_int.o
 .debug_loc     0x0000c4ee      0x1c4 D:\svn\stm32\stm32_high\sw\prj\RIDE\all_demo\usb_mem.o
 .debug_loc     0x0000c6b2      0x5fc D:\svn\stm32\stm32_high\sw\prj\RIDE\all_demo\usb_regs.o
 .debug_loc     0x0000ccae       0xe5 D:\svn\stm32\stm32_high\sw\prj\RIDE\all_demo\stm32f10x_wwdg.o
 .debug_loc     0x0000cd93      0x130 D:\svn\stm32\stm32_high\sw\prj\RIDE\all_demo\misc.o
 .debug_loc     0x0000cec3      0x937 D:\svn\stm32\stm32_high\sw\prj\RIDE\all_demo\stm32f10x_adc.o
 .debug_loc     0x0000d7fa      0x133 D:\svn\stm32\stm32_high\sw\prj\RIDE\all_demo\stm32f10x_bkp.o
 .debug_loc     0x0000d92d      0x809 D:\svn\stm32\stm32_high\sw\prj\RIDE\all_demo\stm32f10x_can.o
 .debug_loc     0x0000e136      0x1f4 D:\svn\stm32\stm32_high\sw\prj\RIDE\all_demo\stm32f10x_cec.o
 .debug_loc     0x0000e32a       0x8f D:\svn\stm32\stm32_high\sw\prj\RIDE\all_demo\stm32f10x_crc.o
 .debug_loc     0x0000e3b9      0x300 D:\svn\stm32\stm32_high\sw\prj\RIDE\all_demo\stm32f10x_dac.o
 .debug_loc     0x0000e6b9       0x1e D:\svn\stm32\stm32_high\sw\prj\RIDE\all_demo\stm32f10x_dbgmcu.o
 .debug_loc     0x0000e6d7      0x142 D:\svn\stm32\stm32_high\sw\prj\RIDE\all_demo\stm32f10x_dma.o
 .debug_loc     0x0000e819      0x146 D:\svn\stm32\stm32_high\sw\prj\RIDE\all_demo\stm32f10x_exti.o
 .debug_loc     0x0000e95f      0x80c D:\svn\stm32\stm32_high\sw\prj\RIDE\all_demo\stm32f10x_flash.o
 .debug_loc     0x0000f16b      0x3c9 D:\svn\stm32\stm32_high\sw\prj\RIDE\all_demo\stm32f10x_fsmc.o
 .debug_loc     0x0000f534      0x4aa D:\svn\stm32\stm32_high\sw\prj\RIDE\all_demo\stm32f10x_gpio.o
 .debug_loc     0x0000f9de      0x67d D:\svn\stm32\stm32_high\sw\prj\RIDE\all_demo\stm32f10x_i2c.o
 .debug_loc     0x0001005b       0x3d D:\svn\stm32\stm32_high\sw\prj\RIDE\all_demo\stm32f10x_iwdg.o
 .debug_loc     0x00010098       0xe2 D:\svn\stm32\stm32_high\sw\prj\RIDE\all_demo\stm32f10x_pwr.o
 .debug_loc     0x0001017a      0x51a D:\svn\stm32\stm32_high\sw\prj\RIDE\all_demo\stm32f10x_rcc.o
 .debug_loc     0x00010694      0x211 D:\svn\stm32\stm32_high\sw\prj\RIDE\all_demo\stm32f10x_rtc.o
 .debug_loc     0x000108a5      0x223 D:\svn\stm32\stm32_high\sw\prj\RIDE\all_demo\stm32f10x_sdio.o
 .debug_loc     0x00010ac8      0x491 D:\svn\stm32\stm32_high\sw\prj\RIDE\all_demo\stm32f10x_spi.o
 .debug_loc     0x00010f59     0x15a9 D:\svn\stm32\stm32_high\sw\prj\RIDE\all_demo\stm32f10x_tim.o
 .debug_loc     0x00012502      0x568 D:\svn\stm32\stm32_high\sw\prj\RIDE\all_demo\stm32f10x_usart.o

.debug_macinfo
 *(.debug_macinfo)

.debug_ranges   0x00000000     0x21b0
 *(.debug_ranges)
 .debug_ranges  0x00000000       0x90 D:\svn\stm32\stm32_high\sw\prj\RIDE\all_demo\vs1003b.o
 .debug_ranges  0x00000090       0x18 D:\svn\stm32\stm32_high\sw\prj\RIDE\all_demo\adc.o
 .debug_ranges  0x000000a8       0x50 D:\svn\stm32\stm32_high\sw\prj\RIDE\all_demo\at24c02.o
 .debug_ranges  0x000000f8       0x28 D:\svn\stm32\stm32_high\sw\prj\RIDE\all_demo\buzzer.o
 .debug_ranges  0x00000120       0x30 D:\svn\stm32\stm32_high\sw\prj\RIDE\all_demo\can.o
 .debug_ranges  0x00000150       0x18 D:\svn\stm32\stm32_high\sw\prj\RIDE\all_demo\dac.o
 .debug_ranges  0x00000168       0x38 D:\svn\stm32\stm32_high\sw\prj\RIDE\all_demo\diskio.o
 .debug_ranges  0x000001a0      0x1b8 D:\svn\stm32\stm32_high\sw\prj\RIDE\all_demo\ff.o
 .debug_ranges  0x00000358       0x68 D:\svn\stm32\stm32_high\sw\prj\RIDE\all_demo\hw_config.o
 .debug_ranges  0x000003c0       0x48 D:\svn\stm32\stm32_high\sw\prj\RIDE\all_demo\iic.o
 .debug_ranges  0x00000408       0x40 D:\svn\stm32\stm32_high\sw\prj\RIDE\all_demo\key.o
 .debug_ranges  0x00000448       0x70 D:\svn\stm32\stm32_high\sw\prj\RIDE\all_demo\lcd28.o
 .debug_ranges  0x000004b8       0x70 D:\svn\stm32\stm32_high\sw\prj\RIDE\all_demo\lcd32.o
 .debug_ranges  0x00000528       0xa0 D:\svn\stm32\stm32_high\sw\prj\RIDE\all_demo\lcd43.o
 .debug_ranges  0x000005c8       0x90 D:\svn\stm32\stm32_high\sw\prj\RIDE\all_demo\lcd70.o
 .debug_ranges  0x00000658       0x68 D:\svn\stm32\stm32_high\sw\prj\RIDE\all_demo\lcd1602.o
 .debug_ranges  0x000006c0       0x70 D:\svn\stm32\stm32_high\sw\prj\RIDE\all_demo\lcd12864.o
 .debug_ranges  0x00000730       0x60 D:\svn\stm32\stm32_high\sw\prj\RIDE\all_demo\lcd.o
 .debug_ranges  0x00000790       0x40 D:\svn\stm32\stm32_high\sw\prj\RIDE\all_demo\led.o
 .debug_ranges  0x000007d0      0x260 D:\svn\stm32\stm32_high\sw\prj\RIDE\all_demo\main.o
 .debug_ranges  0x00000a30       0xa0 D:\svn\stm32\stm32_high\sw\prj\RIDE\all_demo\mmc_sd.o
 .debug_ranges  0x00000ad0       0x58 D:\svn\stm32\stm32_high\sw\prj\RIDE\all_demo\nrf24l01.o
 .debug_ranges  0x00000b28       0x48 D:\svn\stm32\stm32_high\sw\prj\RIDE\all_demo\queue.o
 .debug_ranges  0x00000b70       0x30 D:\svn\stm32\stm32_high\sw\prj\RIDE\all_demo\rs485.o
 .debug_ranges  0x00000ba0       0x38 D:\svn\stm32\stm32_high\sw\prj\RIDE\all_demo\rtc.o
 .debug_ranges  0x00000bd8       0x30 D:\svn\stm32\stm32_high\sw\prj\RIDE\all_demo\spi.o
 .debug_ranges  0x00000c08       0x60 D:\svn\stm32\stm32_high\sw\prj\RIDE\all_demo\stm32f10x_it.o
 .debug_ranges  0x00000c68       0x30 D:\svn\stm32\stm32_high\sw\prj\RIDE\all_demo\timer.o
 .debug_ranges  0x00000c98       0xd0 D:\svn\stm32\stm32_high\sw\prj\RIDE\all_demo\touch.o
 .debug_ranges  0x00000d68       0xb0 D:\svn\stm32\stm32_high\sw\prj\RIDE\all_demo\usart.o
 .debug_ranges  0x00000e18       0x10 D:\svn\stm32\stm32_high\sw\prj\RIDE\all_demo\usb_istr.o
 .debug_ranges  0x00000e28       0x88 D:\svn\stm32\stm32_high\sw\prj\RIDE\all_demo\usb_prop.o
 .debug_ranges  0x00000eb0       0x30 D:\svn\stm32\stm32_high\sw\prj\RIDE\all_demo\usb_pwr.o
 .debug_ranges  0x00000ee0       0x18 D:\svn\stm32\stm32_high\sw\prj\RIDE\all_demo\system_stm32f10x.o
 .debug_ranges  0x00000ef8       0x20 D:\svn\stm32\stm32_high\sw\prj\RIDE\all_demo\usb_sil.o
 .debug_ranges  0x00000f18       0xa0 D:\svn\stm32\stm32_high\sw\prj\RIDE\all_demo\usb_core.o
 .debug_ranges  0x00000fb8       0x10 D:\svn\stm32\stm32_high\sw\prj\RIDE\all_demo\usb_init.o
 .debug_ranges  0x00000fc8       0x18 D:\svn\stm32\stm32_high\sw\prj\RIDE\all_demo\usb_int.o
 .debug_ranges  0x00000fe0       0x18 D:\svn\stm32\stm32_high\sw\prj\RIDE\all_demo\usb_mem.o
 .debug_ranges  0x00000ff8      0x250 D:\svn\stm32\stm32_high\sw\prj\RIDE\all_demo\usb_regs.o
 .debug_ranges  0x00001248       0x48 D:\svn\stm32\stm32_high\sw\prj\RIDE\all_demo\stm32f10x_wwdg.o
 .debug_ranges  0x00001290       0x30 D:\svn\stm32\stm32_high\sw\prj\RIDE\all_demo\misc.o
 .debug_ranges  0x000012c0      0x128 D:\svn\stm32\stm32_high\sw\prj\RIDE\all_demo\stm32f10x_adc.o
 .debug_ranges  0x000013e8       0x68 D:\svn\stm32\stm32_high\sw\prj\RIDE\all_demo\stm32f10x_bkp.o
 .debug_ranges  0x00001450       0xd0 D:\svn\stm32\stm32_high\sw\prj\RIDE\all_demo\stm32f10x_can.o
 .debug_ranges  0x00001520       0x78 D:\svn\stm32\stm32_high\sw\prj\RIDE\all_demo\stm32f10x_cec.o
 .debug_ranges  0x00001598       0x38 D:\svn\stm32\stm32_high\sw\prj\RIDE\all_demo\stm32f10x_crc.o
 .debug_ranges  0x000015d0       0x68 D:\svn\stm32\stm32_high\sw\prj\RIDE\all_demo\stm32f10x_dac.o
 .debug_ranges  0x00001638       0x20 D:\svn\stm32\stm32_high\sw\prj\RIDE\all_demo\stm32f10x_dbgmcu.o
 .debug_ranges  0x00001658       0x60 D:\svn\stm32\stm32_high\sw\prj\RIDE\all_demo\stm32f10x_dma.o
 .debug_ranges  0x000016b8       0x48 D:\svn\stm32\stm32_high\sw\prj\RIDE\all_demo\stm32f10x_exti.o
 .debug_ranges  0x00001700       0xe8 D:\svn\stm32\stm32_high\sw\prj\RIDE\all_demo\stm32f10x_flash.o
 .debug_ranges  0x000017e8       0xa0 D:\svn\stm32\stm32_high\sw\prj\RIDE\all_demo\stm32f10x_fsmc.o
 .debug_ranges  0x00001888       0x98 D:\svn\stm32\stm32_high\sw\prj\RIDE\all_demo\stm32f10x_gpio.o
 .debug_ranges  0x00001920      0x110 D:\svn\stm32\stm32_high\sw\prj\RIDE\all_demo\stm32f10x_i2c.o
 .debug_ranges  0x00001a30       0x38 D:\svn\stm32\stm32_high\sw\prj\RIDE\all_demo\stm32f10x_iwdg.o
 .debug_ranges  0x00001a68       0x50 D:\svn\stm32\stm32_high\sw\prj\RIDE\all_demo\stm32f10x_pwr.o
 .debug_ranges  0x00001ab8      0x108 D:\svn\stm32\stm32_high\sw\prj\RIDE\all_demo\stm32f10x_rcc.o
 .debug_ranges  0x00001bc0       0x78 D:\svn\stm32\stm32_high\sw\prj\RIDE\all_demo\stm32f10x_rtc.o
 .debug_ranges  0x00001c38       0xf8 D:\svn\stm32\stm32_high\sw\prj\RIDE\all_demo\stm32f10x_sdio.o
 .debug_ranges  0x00001d30       0xc0 D:\svn\stm32\stm32_high\sw\prj\RIDE\all_demo\stm32f10x_spi.o
 .debug_ranges  0x00001df0      0x2d0 D:\svn\stm32\stm32_high\sw\prj\RIDE\all_demo\stm32f10x_tim.o
 .debug_ranges  0x000020c0       0xf0 D:\svn\stm32\stm32_high\sw\prj\RIDE\all_demo\stm32f10x_usart.o

.debug_weaknames
 *(.debug_weaknames)

.debug_funcnames
 *(.debug_funcnames)

.debug_typenames
 *(.debug_typenames)

.debug_varnames
 *(.debug_varnames)
START GROUP
LOAD c:/program files/raisonance/ride/arm-gcc/bin/../lib/gcc/arm-none-eabi/4.5.2/thumb2\libgcc.a
LOAD c:/program files/raisonance/ride/arm-gcc/bin/../lib/gcc/arm-none-eabi/4.5.2/../../../../arm-none-eabi/lib/thumb2\libc.a
END GROUP
OUTPUT(D:\svn\stm32\stm32_high\sw\prj\RIDE\all_demo\all_demo.elf elf32-littlearm)

.debug_pubtypes
                0x00000000     0x3167
 .debug_pubtypes
                0x00000000       0xa4 D:\svn\stm32\stm32_high\sw\prj\RIDE\all_demo\vs1003b.o
 .debug_pubtypes
                0x000000a4       0xcd D:\svn\stm32\stm32_high\sw\prj\RIDE\all_demo\adc.o
 .debug_pubtypes
                0x00000171       0xac D:\svn\stm32\stm32_high\sw\prj\RIDE\all_demo\at24c02.o
 .debug_pubtypes
                0x0000021d       0x89 D:\svn\stm32\stm32_high\sw\prj\RIDE\all_demo\buzzer.o
 .debug_pubtypes
                0x000002a6      0x174 D:\svn\stm32\stm32_high\sw\prj\RIDE\all_demo\can.o
 .debug_pubtypes
                0x0000041a       0xe1 D:\svn\stm32\stm32_high\sw\prj\RIDE\all_demo\dac.o
 .debug_pubtypes
                0x000004fb       0x90 D:\svn\stm32\stm32_high\sw\prj\RIDE\all_demo\diskio.o
 .debug_pubtypes
                0x0000058b       0xc2 D:\svn\stm32\stm32_high\sw\prj\RIDE\all_demo\ff.o
 .debug_pubtypes
                0x0000064d      0x1cb D:\svn\stm32\stm32_high\sw\prj\RIDE\all_demo\hw_config.o
 .debug_pubtypes
                0x00000818       0x64 D:\svn\stm32\stm32_high\sw\prj\RIDE\all_demo\iic.o
 .debug_pubtypes
                0x0000087c      0x1ce D:\svn\stm32\stm32_high\sw\prj\RIDE\all_demo\key.o
 .debug_pubtypes
                0x00000a4a       0x6c D:\svn\stm32\stm32_high\sw\prj\RIDE\all_demo\lcd28.o
 .debug_pubtypes
                0x00000ab6       0x6c D:\svn\stm32\stm32_high\sw\prj\RIDE\all_demo\lcd32.o
 .debug_pubtypes
                0x00000b22       0x6c D:\svn\stm32\stm32_high\sw\prj\RIDE\all_demo\lcd43.o
 .debug_pubtypes
                0x00000b8e       0x6c D:\svn\stm32\stm32_high\sw\prj\RIDE\all_demo\lcd70.o
 .debug_pubtypes
                0x00000bfa       0x9c D:\svn\stm32\stm32_high\sw\prj\RIDE\all_demo\lcd1602.o
 .debug_pubtypes
                0x00000c96       0xa4 D:\svn\stm32\stm32_high\sw\prj\RIDE\all_demo\lcd12864.o
 .debug_pubtypes
                0x00000d3a       0xfb D:\svn\stm32\stm32_high\sw\prj\RIDE\all_demo\lcd.o
 .debug_pubtypes
                0x00000e35      0x10b D:\svn\stm32\stm32_high\sw\prj\RIDE\all_demo\led.o
 .debug_pubtypes
                0x00000f40      0x24c D:\svn\stm32\stm32_high\sw\prj\RIDE\all_demo\main.o
 .debug_pubtypes
                0x0000118c       0xd0 D:\svn\stm32\stm32_high\sw\prj\RIDE\all_demo\mmc_sd.o
 .debug_pubtypes
                0x0000125c       0xc0 D:\svn\stm32\stm32_high\sw\prj\RIDE\all_demo\nrf24l01.o
 .debug_pubtypes
                0x0000131c       0x76 D:\svn\stm32\stm32_high\sw\prj\RIDE\all_demo\queue.o
 .debug_pubtypes
                0x00001392       0x89 D:\svn\stm32\stm32_high\sw\prj\RIDE\all_demo\rs485.o
 .debug_pubtypes
                0x0000141b       0xd2 D:\svn\stm32\stm32_high\sw\prj\RIDE\all_demo\rtc.o
 .debug_pubtypes
                0x000014ed       0x6f D:\svn\stm32\stm32_high\sw\prj\RIDE\all_demo\spi.o
 .debug_pubtypes
                0x0000155c       0xd5 D:\svn\stm32\stm32_high\sw\prj\RIDE\all_demo\stm32f10x_it.o
 .debug_pubtypes
                0x00001631      0x128 D:\svn\stm32\stm32_high\sw\prj\RIDE\all_demo\timer.o
 .debug_pubtypes
                0x00001759      0x164 D:\svn\stm32\stm32_high\sw\prj\RIDE\all_demo\touch.o
 .debug_pubtypes
                0x000018bd      0x231 D:\svn\stm32\stm32_high\sw\prj\RIDE\all_demo\usart.o
 .debug_pubtypes
                0x00001aee       0x2a D:\svn\stm32\stm32_high\sw\prj\RIDE\all_demo\usb_desc.o
 .debug_pubtypes
                0x00001b18       0x8a D:\svn\stm32\stm32_high\sw\prj\RIDE\all_demo\usb_istr.o
 .debug_pubtypes
                0x00001ba2      0x1a0 D:\svn\stm32\stm32_high\sw\prj\RIDE\all_demo\usb_prop.o
 .debug_pubtypes
                0x00001d42       0xa1 D:\svn\stm32\stm32_high\sw\prj\RIDE\all_demo\usb_pwr.o
 .debug_pubtypes
                0x00001de3       0x73 D:\svn\stm32\stm32_high\sw\prj\RIDE\all_demo\system_stm32f10x.o
 .debug_pubtypes
                0x00001e56       0x44 D:\svn\stm32\stm32_high\sw\prj\RIDE\all_demo\usb_sil.o
 .debug_pubtypes
                0x00001e9a      0x1c3 D:\svn\stm32\stm32_high\sw\prj\RIDE\all_demo\usb_core.o
 .debug_pubtypes
                0x0000205d      0x108 D:\svn\stm32\stm32_high\sw\prj\RIDE\all_demo\usb_init.o
 .debug_pubtypes
                0x00002165       0x44 D:\svn\stm32\stm32_high\sw\prj\RIDE\all_demo\usb_int.o
 .debug_pubtypes
                0x000021a9       0x44 D:\svn\stm32\stm32_high\sw\prj\RIDE\all_demo\usb_mem.o
 .debug_pubtypes
                0x000021ed       0x65 D:\svn\stm32\stm32_high\sw\prj\RIDE\all_demo\usb_regs.o
 .debug_pubtypes
                0x00002252       0x57 D:\svn\stm32\stm32_high\sw\prj\RIDE\all_demo\stm32f10x_wwdg.o
 .debug_pubtypes
                0x000022a9       0x8c D:\svn\stm32\stm32_high\sw\prj\RIDE\all_demo\misc.o
 .debug_pubtypes
                0x00002335       0x98 D:\svn\stm32\stm32_high\sw\prj\RIDE\all_demo\stm32f10x_adc.o
 .debug_pubtypes
                0x000023cd       0x84 D:\svn\stm32\stm32_high\sw\prj\RIDE\all_demo\stm32f10x_bkp.o
 .debug_pubtypes
                0x00002451      0x121 D:\svn\stm32\stm32_high\sw\prj\RIDE\all_demo\stm32f10x_can.o
 .debug_pubtypes
                0x00002572       0x98 D:\svn\stm32\stm32_high\sw\prj\RIDE\all_demo\stm32f10x_cec.o
 .debug_pubtypes
                0x0000260a       0x54 D:\svn\stm32\stm32_high\sw\prj\RIDE\all_demo\stm32f10x_crc.o
 .debug_pubtypes
                0x0000265e       0x7c D:\svn\stm32\stm32_high\sw\prj\RIDE\all_demo\stm32f10x_dac.o
 .debug_pubtypes
                0x000026da       0x52 D:\svn\stm32\stm32_high\sw\prj\RIDE\all_demo\stm32f10x_dbgmcu.o
 .debug_pubtypes
                0x0000272c       0xa4 D:\svn\stm32\stm32_high\sw\prj\RIDE\all_demo\stm32f10x_dma.o
 .debug_pubtypes
                0x000027d0       0xae D:\svn\stm32\stm32_high\sw\prj\RIDE\all_demo\stm32f10x_exti.o
 .debug_pubtypes
                0x0000287e       0x99 D:\svn\stm32\stm32_high\sw\prj\RIDE\all_demo\stm32f10x_flash.o
 .debug_pubtypes
                0x00002917      0x174 D:\svn\stm32\stm32_high\sw\prj\RIDE\all_demo\stm32f10x_fsmc.o
 .debug_pubtypes
                0x00002a8b       0xcf D:\svn\stm32\stm32_high\sw\prj\RIDE\all_demo\stm32f10x_gpio.o
 .debug_pubtypes
                0x00002b5a       0xbe D:\svn\stm32\stm32_high\sw\prj\RIDE\all_demo\stm32f10x_i2c.o
 .debug_pubtypes
                0x00002c18       0x64 D:\svn\stm32\stm32_high\sw\prj\RIDE\all_demo\stm32f10x_iwdg.o
 .debug_pubtypes
                0x00002c7c       0x84 D:\svn\stm32\stm32_high\sw\prj\RIDE\all_demo\stm32f10x_pwr.o
 .debug_pubtypes
                0x00002d00       0xaa D:\svn\stm32\stm32_high\sw\prj\RIDE\all_demo\stm32f10x_rcc.o
 .debug_pubtypes
                0x00002daa       0x84 D:\svn\stm32\stm32_high\sw\prj\RIDE\all_demo\stm32f10x_rtc.o
 .debug_pubtypes
                0x00002e2e       0xbe D:\svn\stm32\stm32_high\sw\prj\RIDE\all_demo\stm32f10x_sdio.o
 .debug_pubtypes
                0x00002eec       0xc2 D:\svn\stm32\stm32_high\sw\prj\RIDE\all_demo\stm32f10x_spi.o
 .debug_pubtypes
                0x00002fae       0xe4 D:\svn\stm32\stm32_high\sw\prj\RIDE\all_demo\stm32f10x_tim.o
 .debug_pubtypes
                0x00003092       0xd5 D:\svn\stm32\stm32_high\sw\prj\RIDE\all_demo\stm32f10x_usart.o
